	.text
	.file	"String.bc"
	.globl	"String.setValue(Self)$$4"
	.align	16, 0x90
	.type	"String.setValue(Self)$$4",@function
"String.setValue(Self)$$4":             # @"String.setValue(Self)$$4"
	.cfi_startproc
# BB#0:                                 # %entry
	pushq	%rbp
.Ltmp0:
	.cfi_def_cfa_offset 16
	pushq	%r15
.Ltmp1:
	.cfi_def_cfa_offset 24
	pushq	%r14
.Ltmp2:
	.cfi_def_cfa_offset 32
	pushq	%r13
.Ltmp3:
	.cfi_def_cfa_offset 40
	pushq	%r12
.Ltmp4:
	.cfi_def_cfa_offset 48
	pushq	%rbx
.Ltmp5:
	.cfi_def_cfa_offset 56
	subq	$104, %rsp
.Ltmp6:
	.cfi_def_cfa_offset 160
.Ltmp7:
	.cfi_offset %rbx, -56
.Ltmp8:
	.cfi_offset %r12, -48
.Ltmp9:
	.cfi_offset %r13, -40
.Ltmp10:
	.cfi_offset %r14, -32
.Ltmp11:
	.cfi_offset %r15, -24
.Ltmp12:
	.cfi_offset %rbp, -16
	movl	%r9d, 48(%rsp)          # 4-byte Spill
	movq	%r8, %r14
	movq	%rcx, %r15
	movq	%rdx, %r12
	movq	%rsi, %rbp
	movq	160(%rsp), %rdi
	movq	(%r15), %r13
	movq	$0, 64(%rsp)
	movq	%r13, 64(%rsp)
	movq	8(%r15), %rbx
	movq	$0, 72(%rsp)
	movq	%rbx, 72(%rsp)
	movq	$0, 80(%rsp)
	movq	$0, 88(%rsp)
	movq	$0, 96(%rsp)
	movl	$0, gSigInt(%rip)
	movl	$3932, %esi             # imm = 0xF5C
	callq	get_class_with_load_and_initialize_in_jit
	testq	%rax, %rax
	je	.LBB0_1
# BB#3:                                 # %entry_ifend
	movq	$0, (%rbp)
	movq	%r13, (%rbp)
	movq	$0, 8(%rbp)
	movq	%rbx, 8(%rbp)
	movq	$0, 16(%rbp)
	movq	$0, 24(%rbp)
	movq	$0, 32(%rbp)
	movq	(%r14), %rcx
	movq	$0, (%rcx)
	movl	%ebx, %edx
	movq	%rdx, (%rcx)
	addq	$8, (%r14)
	movl	$7, %esi
	movq	%rax, %rdi
	movq	%r15, %rdx
	movl	48(%rsp), %ebx          # 4-byte Reload
	movl	%ebx, %ecx
	movq	%r14, %r8
	movq	%r12, %r9
	callq	call_invoke_method
	cmpl	$1, %eax
	movq	%r12, %r13
	movl	%ebx, %r12d
	movq	%r15, %rbp
	je	.LBB0_5
# BB#4:                                 # %then_block14
	movq	%r13, %rdi
	callq	get_try_catch_label_name
	jmp	.LBB0_1
.LBB0_5:                                # %entry_ifend15
	movq	(%rbp), %rax
	movq	%rax, 40(%rsp)          # 8-byte Spill
	movq	$0, 64(%rsp)
	movq	%rax, 64(%rsp)
	movq	8(%rbp), %rax
	movq	%rax, 24(%rsp)          # 8-byte Spill
	movq	$0, 72(%rsp)
	movq	%rax, 72(%rsp)
	movq	16(%rbp), %rax
	movq	$0, 80(%rsp)
	movq	%rax, 80(%rsp)
	movq	24(%rbp), %rax
	movq	$0, 88(%rsp)
	movq	%rax, 88(%rsp)
	movq	32(%rbp), %rax
	movq	$0, 96(%rsp)
	movq	%rax, 96(%rsp)
	movq	(%r14), %rax
	movq	-8(%rax), %rbx
	movq	%rbx, 32(%rsp)          # 8-byte Spill
	movl	%ebx, %edi
	callq	push_jit_object
	addq	$-8, (%r14)
	movq	$0, 80(%rsp)
	movq	%rbx, 80(%rsp)
	movl	$0, gSigInt(%rip)
	leal	1(%rbx,%rbx), %eax
	movq	%rax, 16(%rsp)          # 8-byte Spill
	movq	$0, 88(%rsp)
	movq	%rax, 88(%rsp)
	movl	$0, gSigInt(%rip)
	movl	$3940, %esi             # imm = 0xF64
	movq	160(%rsp), %rdi
	callq	get_class_with_load_and_initialize_in_jit
	testq	%rax, %rax
	movq	%r13, %r15
	movl	%r12d, %r13d
	movq	%rbp, %rbx
	je	.LBB0_1
# BB#6:                                 # %entry_ifend33
	movq	%rax, %rdi
	movq	16(%rsp), %rsi          # 8-byte Reload
	callq	create_array_object
	movl	%eax, %ebp
	movl	%ebp, %edi
	callq	push_jit_object
	movl	%ebp, %r9d
	movl	$0, (%rsp)
	movq	%r14, %rdi
	movq	%rbx, %rsi
	movl	%r13d, %edx
	movq	%r15, %rcx
	movq	40(%rsp), %r8           # 8-byte Reload
	callq	store_field
	testl	%eax, %eax
	je	.LBB0_1
# BB#7:                                 # %entry_ifend36
	movq	%rbx, 56(%rsp)          # 8-byte Spill
	movq	%r15, %rbx
	movl	$0, gSigInt(%rip)
	movq	$0, 96(%rsp)
	xorl	%r12d, %r12d
	movq	56(%rsp), %rbp          # 8-byte Reload
	jmp	.LBB0_8
	.align	16, 0x90
.LBB0_13:                               # %entry_ifend54
                                        #   in Loop: Header=BB0_8 Depth=1
	movq	%r15, %rbx
	incl	%r12d
	movq	$0, 96(%rsp)
	movq	%r12, 96(%rsp)
.LBB0_8:                                # %for_start_pointa
                                        # =>This Inner Loop Header: Depth=1
	movl	$0, gSigInt(%rip)
	xorl	%r9d, %r9d
	movq	%r14, %rdi
	movq	56(%rsp), %rsi          # 8-byte Reload
	movl	%r13d, %edx
	movq	%rbx, %rcx
	movq	40(%rsp), %r8           # 8-byte Reload
	callq	get_field_from_object
	movq	(%rax), %rcx
	movq	%rcx, 48(%rsp)          # 8-byte Spill
	movl	8(%rax), %eax
	movq	32(%rsp), %rcx          # 8-byte Reload
	cmpl	%ecx, %r12d
	jge	.LBB0_14
# BB#9:                                 # %entry_condend
                                        #   in Loop: Header=BB0_8 Depth=1
	testl	%eax, %eax
	movq	%rbx, %r15
	je	.LBB0_1
# BB#10:                                # %entry_ifend42
                                        #   in Loop: Header=BB0_8 Depth=1
	xorl	%r9d, %r9d
	movq	%r14, %rdi
	movq	%rbp, %rsi
	movl	%r13d, %edx
	movq	%r15, %rcx
	movq	24(%rsp), %r8           # 8-byte Reload
	callq	get_field_from_object
	cmpl	$0, 8(%rax)
	je	.LBB0_1
# BB#11:                                # %entry_ifend47
                                        #   in Loop: Header=BB0_8 Depth=1
	movq	(%rax), %r8
	movq	%r14, %rdi
	movq	%rbp, %rsi
	movl	%r13d, %edx
	movq	%r15, %rcx
	movl	%r12d, %r9d
	callq	load_element
	cmpl	$0, 8(%rax)
	je	.LBB0_1
# BB#12:                                # %entry_ifend51
                                        #   in Loop: Header=BB0_8 Depth=1
	movq	(%rax), %rax
	movl	%eax, %eax
	movq	%rax, (%rsp)
	movq	%r14, %rdi
	movq	%rbp, %rsi
	movl	%r13d, %edx
	movq	%r15, %rcx
	movq	48(%rsp), %r8           # 8-byte Reload
	movl	%r12d, %r9d
	callq	run_store_element
	testl	%eax, %eax
	jne	.LBB0_13
	jmp	.LBB0_1
.LBB0_14:                               # %label_for_enda
	testl	%eax, %eax
	movq	%rbx, %r15
	movq	%r14, %rbx
	movq	56(%rsp), %r14          # 8-byte Reload
	je	.LBB0_1
# BB#15:                                # %entry_ifend61
	movq	$0, (%rsp)
	movq	%rbx, %rdi
	movq	%r14, %rsi
	movl	%r13d, %edx
	movq	%r15, %rcx
	movq	48(%rsp), %r8           # 8-byte Reload
	movl	%r12d, %r9d
	callq	run_store_element
	testl	%eax, %eax
	je	.LBB0_1
# BB#16:                                # %entry_ifend65
	movl	$0, gSigInt(%rip)
	movq	32(%rsp), %rax          # 8-byte Reload
	movl	%eax, %r9d
	movl	$2, (%rsp)
	movq	%rbx, %rdi
	movq	%r14, %rsi
	movl	%r13d, %edx
	movq	%r15, %rcx
	movq	40(%rsp), %r8           # 8-byte Reload
	callq	store_field
	testl	%eax, %eax
	je	.LBB0_1
# BB#17:                                # %entry_ifend70
	movl	$0, gSigInt(%rip)
	movq	16(%rsp), %rax          # 8-byte Reload
	movl	%eax, %r9d
	movl	$1, (%rsp)
	movq	%rbx, %rdi
	movq	%r14, %rsi
	movl	%r13d, %edx
	movq	%r15, %rcx
	movq	40(%rsp), %r8           # 8-byte Reload
	callq	store_field
	testl	%eax, %eax
	je	.LBB0_1
# BB#18:                                # %entry_ifend75
	movq	$0, (%r14)
	movl	$1, %eax
	jmp	.LBB0_2
.LBB0_1:                                # %then_block
	xorl	%eax, %eax
.LBB0_2:                                # %then_block
	addq	$104, %rsp
	popq	%rbx
	popq	%r12
	popq	%r13
	popq	%r14
	popq	%r15
	popq	%rbp
	retq
.Lfunc_end0:
	.size	"String.setValue(Self)$$4", .Lfunc_end0-"String.setValue(Self)$$4"
	.cfi_endproc

	.globl	"String.setValue(char[])$$5"
	.align	16, 0x90
	.type	"String.setValue(char[])$$5",@function
"String.setValue(char[])$$5":           # @"String.setValue(char[])$$5"
	.cfi_startproc
# BB#0:                                 # %entry
	pushq	%rbp
.Ltmp13:
	.cfi_def_cfa_offset 16
	pushq	%r15
.Ltmp14:
	.cfi_def_cfa_offset 24
	pushq	%r14
.Ltmp15:
	.cfi_def_cfa_offset 32
	pushq	%r13
.Ltmp16:
	.cfi_def_cfa_offset 40
	pushq	%r12
.Ltmp17:
	.cfi_def_cfa_offset 48
	pushq	%rbx
.Ltmp18:
	.cfi_def_cfa_offset 56
	subq	$24, %rsp
.Ltmp19:
	.cfi_def_cfa_offset 80
.Ltmp20:
	.cfi_offset %rbx, -56
.Ltmp21:
	.cfi_offset %r12, -48
.Ltmp22:
	.cfi_offset %r13, -40
.Ltmp23:
	.cfi_offset %r14, -32
.Ltmp24:
	.cfi_offset %r15, -24
.Ltmp25:
	.cfi_offset %rbp, -16
	movl	%r9d, %r14d
	movq	%r8, %r12
	movq	%rcx, %rbx
	movq	%rdx, %r15
	movq	(%rbx), %r13
	movq	$0, 8(%rsp)
	movq	%r13, 8(%rsp)
	movq	8(%rbx), %rbp
	movq	$0, 16(%rsp)
	movq	%rbp, 16(%rsp)
	movl	$0, gSigInt(%rip)
	movl	%ebp, %r9d
	movl	$0, (%rsp)
	movq	%r12, %rdi
	movq	%rbx, %rsi
	movl	%r14d, %edx
	movq	%r15, %rcx
	movl	%r13d, %r8d
	callq	store_field
	testl	%eax, %eax
	je	.LBB1_1
# BB#3:                                 # %entry_ifend
	movl	$0, gSigInt(%rip)
	movl	%ebp, %edi
	callq	get_array_length
	leal	-1(%rax), %r9d
	movl	$2, (%rsp)
	movq	%r12, %rdi
	movq	%rbx, %rsi
	movl	%r14d, %edx
	movq	%r15, %rcx
	movl	%r13d, %r8d
	callq	store_field
	testl	%eax, %eax
	je	.LBB1_1
# BB#4:                                 # %entry_ifend7
	movl	$0, gSigInt(%rip)
	movl	%ebp, %edi
	callq	get_array_length
	movl	%eax, %r9d
	movl	$1, (%rsp)
	movq	%r12, %rdi
	movq	%rbx, %rsi
	movl	%r14d, %edx
	movq	%r15, %rcx
	movl	%r13d, %r8d
	callq	store_field
	testl	%eax, %eax
	je	.LBB1_1
# BB#5:                                 # %entry_ifend12
	movq	$0, (%rbx)
	movl	$1, %eax
	jmp	.LBB1_2
.LBB1_1:                                # %then_block
	xorl	%eax, %eax
.LBB1_2:                                # %then_block
	addq	$24, %rsp
	popq	%rbx
	popq	%r12
	popq	%r13
	popq	%r14
	popq	%r15
	popq	%rbp
	retq
.Lfunc_end1:
	.size	"String.setValue(char[])$$5", .Lfunc_end1-"String.setValue(char[])$$5"
	.cfi_endproc

	.globl	"String.chars(int)$$6"
	.align	16, 0x90
	.type	"String.chars(int)$$6",@function
"String.chars(int)$$6":                 # @"String.chars(int)$$6"
	.cfi_startproc
# BB#0:                                 # %entry
	pushq	%rbp
.Ltmp26:
	.cfi_def_cfa_offset 16
	pushq	%r15
.Ltmp27:
	.cfi_def_cfa_offset 24
	pushq	%r14
.Ltmp28:
	.cfi_def_cfa_offset 32
	pushq	%r13
.Ltmp29:
	.cfi_def_cfa_offset 40
	pushq	%r12
.Ltmp30:
	.cfi_def_cfa_offset 48
	pushq	%rbx
.Ltmp31:
	.cfi_def_cfa_offset 56
	subq	$24, %rsp
.Ltmp32:
	.cfi_def_cfa_offset 80
.Ltmp33:
	.cfi_offset %rbx, -56
.Ltmp34:
	.cfi_offset %r12, -48
.Ltmp35:
	.cfi_offset %r13, -40
.Ltmp36:
	.cfi_offset %r14, -32
.Ltmp37:
	.cfi_offset %r15, -24
.Ltmp38:
	.cfi_offset %rbp, -16
	movl	%r9d, %r14d
	movq	%r8, %r12
	movq	%rcx, %rbx
	movq	%rdx, %r15
	movq	(%rbx), %r13
	movq	$0, 8(%rsp)
	movq	%r13, 8(%rsp)
	movq	8(%rbx), %rbp
	movq	$0, 16(%rsp)
	movq	%rbp, 16(%rsp)
	movl	$0, gSigInt(%rip)
	testl	%ebp, %ebp
	jns	.LBB2_5
# BB#1:                                 # %entry_condend
	movl	$0, gSigInt(%rip)
	movl	$2, %r9d
	movq	%r12, %rdi
	movq	%rbx, %rsi
	movl	%r14d, %edx
	movq	%r15, %rcx
	movl	%r13d, %r8d
	callq	get_field_from_object
	cmpl	$0, 8(%rax)
	je	.LBB2_2
# BB#4:                                 # %entry_ifend
	movq	(%rax), %rax
	addl	%eax, %ebp
	movq	$0, 16(%rsp)
	movq	%rbp, 16(%rsp)
.LBB2_5:                                # %label_if_endb
	movl	$0, gSigInt(%rip)
	testl	%ebp, %ebp
	jns	.LBB2_7
# BB#6:                                 # %entry_condend9
	movl	$0, gSigInt(%rip)
	movq	$0, 16(%rsp)
	xorl	%ebp, %ebp
.LBB2_7:                                # %label_if_endc
	movl	$0, gSigInt(%rip)
	movl	$2, %r9d
	movq	%r12, %rdi
	movq	%rbx, %rsi
	movl	%r14d, %edx
	movq	%r15, %rcx
	movl	%r13d, %r8d
	callq	get_field_from_object
	cmpl	$0, 8(%rax)
	je	.LBB2_2
# BB#8:                                 # %entry_ifend15
	movq	(%rax), %rax
	cmpl	%eax, %ebp
	jl	.LBB2_11
# BB#9:                                 # %entry_condend18
	movl	$0, gSigInt(%rip)
	movl	$2, %r9d
	movq	%r12, %rdi
	movq	%rbx, %rsi
	movl	%r14d, %edx
	movq	%r15, %rcx
	movl	%r13d, %r8d
	callq	get_field_from_object
	cmpl	$0, 8(%rax)
	je	.LBB2_2
# BB#10:                                # %entry_ifend22
	movq	(%rax), %rbp
	decl	%ebp
	movq	$0, 16(%rsp)
	movq	%rbp, 16(%rsp)
.LBB2_11:                               # %label_if_endd
	movl	$0, gSigInt(%rip)
	xorl	%r9d, %r9d
	movq	%r12, %rdi
	movq	%rbx, %rsi
	movl	%r14d, %edx
	movq	%r15, %rcx
	movl	%r13d, %r8d
	callq	get_field_from_object
	cmpl	$0, 8(%rax)
	je	.LBB2_2
# BB#12:                                # %entry_ifend27
	movq	(%rax), %r8
	movq	%r12, %rdi
	movq	%rbx, %rsi
	movl	%r14d, %edx
	movq	%r15, %rcx
	movl	%ebp, %r9d
	callq	load_element
	cmpl	$0, 8(%rax)
	je	.LBB2_2
# BB#13:                                # %entry_ifend31
	movq	(%rax), %rax
	movl	%eax, %eax
	movq	%rax, (%rbx)
	movl	$1, %eax
	jmp	.LBB2_3
.LBB2_2:                                # %then_block
	xorl	%eax, %eax
.LBB2_3:                                # %then_block
	addq	$24, %rsp
	popq	%rbx
	popq	%r12
	popq	%r13
	popq	%r14
	popq	%r15
	popq	%rbp
	retq
.Lfunc_end2:
	.size	"String.chars(int)$$6", .Lfunc_end2-"String.chars(int)$$6"
	.cfi_endproc

	.globl	"String.length()$$7"
	.align	16, 0x90
	.type	"String.length()$$7",@function
"String.length()$$7":                   # @"String.length()$$7"
	.cfi_startproc
# BB#0:                                 # %entry
	pushq	%rbx
.Ltmp39:
	.cfi_def_cfa_offset 16
	subq	$16, %rsp
.Ltmp40:
	.cfi_def_cfa_offset 32
.Ltmp41:
	.cfi_offset %rbx, -16
	movl	%r9d, %r10d
	movq	%rcx, %rbx
	movq	%rdx, %rcx
	movq	(%rbx), %rax
	movq	$0, 8(%rsp)
	movq	%rax, 8(%rsp)
	movl	$0, gSigInt(%rip)
	movl	$2, %r9d
	movq	%r8, %rdi
	movq	%rbx, %rsi
	movl	%r10d, %edx
	movl	%eax, %r8d
	callq	get_field_from_object
	cmpl	$0, 8(%rax)
	je	.LBB3_1
# BB#3:                                 # %entry_ifend
	movq	(%rax), %rax
	movl	%eax, %eax
	movq	%rax, (%rbx)
	movl	$1, %eax
	jmp	.LBB3_2
.LBB3_1:                                # %then_block
	xorl	%eax, %eax
.LBB3_2:                                # %then_block
	addq	$16, %rsp
	popq	%rbx
	retq
.Lfunc_end3:
	.size	"String.length()$$7", .Lfunc_end3-"String.length()$$7"
	.cfi_endproc

	.globl	"String.append(Self)$$8"
	.align	16, 0x90
	.type	"String.append(Self)$$8",@function
"String.append(Self)$$8":               # @"String.append(Self)$$8"
	.cfi_startproc
# BB#0:                                 # %entry
	pushq	%rbp
.Ltmp42:
	.cfi_def_cfa_offset 16
	pushq	%r15
.Ltmp43:
	.cfi_def_cfa_offset 24
	pushq	%r14
.Ltmp44:
	.cfi_def_cfa_offset 32
	pushq	%r13
.Ltmp45:
	.cfi_def_cfa_offset 40
	pushq	%r12
.Ltmp46:
	.cfi_def_cfa_offset 48
	pushq	%rbx
.Ltmp47:
	.cfi_def_cfa_offset 56
	subq	$88, %rsp
.Ltmp48:
	.cfi_def_cfa_offset 144
.Ltmp49:
	.cfi_offset %rbx, -56
.Ltmp50:
	.cfi_offset %r12, -48
.Ltmp51:
	.cfi_offset %r13, -40
.Ltmp52:
	.cfi_offset %r14, -32
.Ltmp53:
	.cfi_offset %r15, -24
.Ltmp54:
	.cfi_offset %rbp, -16
	movl	%r9d, %r13d
	movq	%r8, %r15
	movq	%rcx, %r14
	movq	%rdx, %r12
	movq	%rsi, %rbp
	movq	144(%rsp), %rdi
	movq	(%r14), %rax
	movq	$0, 40(%rsp)
	movq	%rax, 40(%rsp)
	movq	8(%r14), %rbx
	movq	$0, 48(%rsp)
	movq	%rbx, 48(%rsp)
	movq	$0, 56(%rsp)
	movq	$0, 64(%rsp)
	movq	$0, 72(%rsp)
	movq	$0, 80(%rsp)
	movl	$0, gSigInt(%rip)
	movl	$4164, %esi             # imm = 0x1044
	callq	get_class_with_load_and_initialize_in_jit
	testq	%rax, %rax
	je	.LBB4_1
# BB#3:                                 # %entry_ifend
	movq	40(%rsp), %rcx
	movq	$0, (%rbp)
	movq	%rcx, (%rbp)
	movq	$0, 8(%rbp)
	movq	%rbx, 8(%rbp)
	movq	$0, 16(%rbp)
	movq	$0, 24(%rbp)
	movq	$0, 32(%rbp)
	movq	80(%rsp), %rcx
	movq	$0, 40(%rbp)
	movq	%rcx, 40(%rbp)
	movq	(%r15), %rcx
	movq	$0, (%rcx)
	movl	%ebx, %edx
	movq	%rdx, (%rcx)
	addq	$8, (%r15)
	movl	$7, %esi
	movq	%rax, %rdi
	movq	%r14, %rdx
	movl	%r13d, %ecx
	movq	%r15, %r8
	movq	%r12, %r9
	callq	call_invoke_method
	cmpl	$1, %eax
	movq	%r12, %rbx
	je	.LBB4_5
# BB#4:                                 # %then_block16
	movq	%rbx, %rdi
	callq	get_try_catch_label_name
	jmp	.LBB4_1
.LBB4_5:                                # %entry_ifend17
	movq	(%r14), %rax
	movq	$0, 40(%rsp)
	movq	%rax, 40(%rsp)
	movq	8(%r14), %rax
	movq	%rax, 16(%rsp)          # 8-byte Spill
	movq	$0, 48(%rsp)
	movq	%rax, 48(%rsp)
	movq	16(%r14), %rax
	movq	$0, 56(%rsp)
	movq	%rax, 56(%rsp)
	movq	24(%r14), %rax
	movq	$0, 64(%rsp)
	movq	%rax, 64(%rsp)
	movq	32(%r14), %rax
	movq	$0, 72(%rsp)
	movq	%rax, 72(%rsp)
	movq	40(%r14), %rax
	movq	$0, 80(%rsp)
	movq	%rax, 80(%rsp)
	movq	(%r15), %rax
	movq	-8(%rax), %rbp
	movq	%rbp, 24(%rsp)          # 8-byte Spill
	movl	%ebp, %edi
	callq	push_jit_object
	addq	$-8, (%r15)
	movq	$0, 56(%rsp)
	movq	%rbp, 56(%rsp)
	movl	$0, gSigInt(%rip)
	movl	40(%rsp), %r8d
	movl	$2, %r9d
	movq	%r15, %rdi
	movq	%r14, %rsi
	movl	%r13d, %edx
	movq	%rbx, %rcx
	callq	get_field_from_object
	cmpl	$0, 8(%rax)
	je	.LBB4_1
# BB#6:                                 # %entry_ifend35
	movq	(%rax), %r12
	movl	40(%rsp), %r8d
	movl	$1, %r9d
	movq	%r15, %rdi
	movq	%r14, %rsi
	movl	%r13d, %edx
	movq	%rbx, %rcx
	callq	get_field_from_object
	cmpl	$0, 8(%rax)
	je	.LBB4_1
# BB#7:                                 # %entry_ifend41
	movq	24(%rsp), %rcx          # 8-byte Reload
	leal	1(%r12,%rcx), %ecx
	movl	%ecx, 32(%rsp)          # 4-byte Spill
	movq	(%rax), %r12
	movl	$0, gSigInt(%rip)
	movl	40(%rsp), %r8d
	movl	$2, %r9d
	movq	%r15, %rdi
	movq	%r14, %rsi
	movl	%r13d, %edx
	movq	%rbx, %rcx
	movq	%rbx, %rbp
	callq	get_field_from_object
	movq	(%rax), %rcx
	movl	8(%rax), %eax
	cmpl	%r12d, 32(%rsp)         # 4-byte Folded Reload
	jge	.LBB4_24
# BB#8:                                 # %entry_condend
	testl	%eax, %eax
	je	.LBB4_1
# BB#9:                                 # %entry_ifend45
	movq	$0, 64(%rsp)
	movl	%ecx, %ecx
	movq	%rcx, 32(%rsp)          # 8-byte Spill
	jmp	.LBB4_10
.LBB4_17:                               # %entry_ifend76
                                        #   in Loop: Header=BB4_10 Depth=1
	movq	%r12, %rbp
	movq	32(%rsp), %rcx          # 8-byte Reload
	incl	%ecx
	movq	%rcx, 32(%rsp)          # 8-byte Spill
	movq	$0, 64(%rsp)
.LBB4_10:                               # %for_start_pointf
                                        # =>This Inner Loop Header: Depth=1
	movq	%rcx, 64(%rsp)
	movl	40(%rsp), %r8d
	movl	$2, %r9d
	movq	%r15, %rdi
	movq	%r14, %rsi
	movl	%r13d, %edx
	movq	%rbp, %rcx
	callq	get_field_from_object
	cmpl	$0, 8(%rax)
	je	.LBB4_1
# BB#11:                                # %entry_ifend50
                                        #   in Loop: Header=BB4_10 Depth=1
	movq	(%rax), %r12
	movq	24(%rsp), %rax          # 8-byte Reload
	addl	%eax, %r12d
	movl	$0, gSigInt(%rip)
	movl	40(%rsp), %r8d
	xorl	%r9d, %r9d
	movq	%r15, %rdi
	movq	%r14, %rsi
	movl	%r13d, %edx
	movl	%r13d, %ebx
	movq	%rbp, %rcx
	callq	get_field_from_object
	movq	(%rax), %rcx
	movq	%rcx, 8(%rsp)           # 8-byte Spill
	movl	8(%rax), %eax
	movq	32(%rsp), %rcx          # 8-byte Reload
	cmpl	%r12d, %ecx
	jge	.LBB4_18
# BB#12:                                # %entry_condend56
                                        #   in Loop: Header=BB4_10 Depth=1
	testl	%eax, %eax
	movq	%rbp, %r12
	movl	%ebx, %r13d
	je	.LBB4_1
# BB#13:                                # %entry_ifend60
                                        #   in Loop: Header=BB4_10 Depth=1
	xorl	%r9d, %r9d
	movq	%r15, %rdi
	movq	%r14, %rsi
	movl	%r13d, %edx
	movq	%r12, %rcx
	movq	16(%rsp), %r8           # 8-byte Reload
	callq	get_field_from_object
	cmpl	$0, 8(%rax)
	je	.LBB4_1
# BB#14:                                # %entry_ifend65
                                        #   in Loop: Header=BB4_10 Depth=1
	movq	(%rax), %rbp
	movl	40(%rsp), %r8d
	movl	$2, %r9d
	movq	%r15, %rdi
	movq	%r14, %rsi
	movl	%r13d, %edx
	movq	%r12, %rcx
	callq	get_field_from_object
	cmpl	$0, 8(%rax)
	je	.LBB4_1
# BB#15:                                # %entry_ifend70
                                        #   in Loop: Header=BB4_10 Depth=1
	movq	(%rax), %rax
	movq	32(%rsp), %rcx          # 8-byte Reload
	movl	%ecx, %r9d
	subl	%eax, %r9d
	movq	%r15, %rdi
	movq	%r14, %rsi
	movl	%r13d, %edx
	movq	%r12, %rcx
	movl	%ebp, %r8d
	callq	load_element
	cmpl	$0, 8(%rax)
	je	.LBB4_1
# BB#16:                                # %entry_ifend73
                                        #   in Loop: Header=BB4_10 Depth=1
	movq	(%rax), %rax
	movl	%eax, %eax
	movq	%rax, (%rsp)
	movq	%r15, %rdi
	movq	%r14, %rsi
	movl	%r13d, %edx
	movq	%r12, %rcx
	movq	8(%rsp), %r8            # 8-byte Reload
	movq	32(%rsp), %r9           # 8-byte Reload
	callq	run_store_element
	testl	%eax, %eax
	jne	.LBB4_17
	jmp	.LBB4_1
.LBB4_24:                               # %label_elsee
	testl	%eax, %eax
	movq	%rbp, %rbx
	je	.LBB4_1
# BB#25:                                # %entry_ifend103
	movq	24(%rsp), %rax          # 8-byte Reload
	addl	%eax, %ecx
	leal	2(%rcx,%rcx), %eax
	movq	%rax, 8(%rsp)           # 8-byte Spill
	movq	$0, 64(%rsp)
	movq	%rax, 64(%rsp)
	movl	$0, gSigInt(%rip)
	movl	$4284, %esi             # imm = 0x10BC
	movq	144(%rsp), %rdi
	callq	get_class_with_load_and_initialize_in_jit
	testq	%rax, %rax
	je	.LBB4_1
# BB#26:                                # %entry_ifend110
	movl	%r13d, %ebp
	movq	%rax, %rdi
	movq	8(%rsp), %rsi           # 8-byte Reload
	callq	create_array_object
	movl	%eax, %r12d
	movl	%r12d, %edi
	callq	push_jit_object
	movq	$0, 72(%rsp)
	movl	%r12d, %eax
	movq	%rax, 32(%rsp)          # 8-byte Spill
	movq	%rax, 72(%rsp)
	movl	$0, gSigInt(%rip)
	movq	$0, 80(%rsp)
	xorl	%r13d, %r13d
	jmp	.LBB4_27
.LBB4_32:                               # %entry_ifend133
                                        #   in Loop: Header=BB4_27 Depth=1
	incl	%r13d
	movq	$0, 80(%rsp)
	movq	%r13, 80(%rsp)
.LBB4_27:                               # %for_start_pointg
                                        # =>This Inner Loop Header: Depth=1
	movl	40(%rsp), %r8d
	movl	$2, %r9d
	movq	%r15, %rdi
	movq	%r14, %rsi
	movl	%ebp, %edx
	movq	%rbx, %rcx
	callq	get_field_from_object
	cmpl	$0, 8(%rax)
	je	.LBB4_1
# BB#28:                                # %entry_ifend115
                                        #   in Loop: Header=BB4_27 Depth=1
	movq	(%rax), %rax
	movl	$0, gSigInt(%rip)
	cmpl	%eax, %r13d
	jge	.LBB4_33
# BB#29:                                # %entry_condend119
                                        #   in Loop: Header=BB4_27 Depth=1
	movl	40(%rsp), %r8d
	xorl	%r9d, %r9d
	movq	%r15, %rdi
	movq	%r14, %rsi
	movl	%ebp, %edx
	movq	%rbx, %rcx
	callq	get_field_from_object
	cmpl	$0, 8(%rax)
	je	.LBB4_1
# BB#30:                                # %entry_ifend125
                                        #   in Loop: Header=BB4_27 Depth=1
	movq	(%rax), %r8
	movq	%r15, %rdi
	movq	%r14, %rsi
	movl	%ebp, %edx
	movq	%rbx, %rcx
	movl	%r13d, %r9d
	callq	load_element
	cmpl	$0, 8(%rax)
	je	.LBB4_1
# BB#31:                                # %entry_ifend130
                                        #   in Loop: Header=BB4_27 Depth=1
	movq	(%rax), %rax
	movl	%eax, %eax
	movq	%rax, (%rsp)
	movq	%r15, %rdi
	movq	%r14, %rsi
	movl	%ebp, %edx
	movq	%rbx, %rcx
	movq	32(%rsp), %r8           # 8-byte Reload
	movl	%r13d, %r9d
	callq	run_store_element
	testl	%eax, %eax
	jne	.LBB4_32
	jmp	.LBB4_1
.LBB4_18:                               # %label_for_endf
	testl	%eax, %eax
	movq	%rbp, %r13
	movl	%ebx, %ebp
	je	.LBB4_1
# BB#19:                                # %entry_ifend84
	movq	$0, (%rsp)
	movq	%r15, %rdi
	movq	%r14, %rsi
	movl	%ebp, %edx
	movq	%r13, %rcx
	movq	8(%rsp), %r8            # 8-byte Reload
	movq	32(%rsp), %r9           # 8-byte Reload
	callq	run_store_element
	testl	%eax, %eax
	je	.LBB4_1
# BB#20:                                # %entry_ifend88
	movl	$0, gSigInt(%rip)
	movl	40(%rsp), %r12d
	movl	$2, %r9d
	movq	%r15, %rdi
	movq	%r14, %rsi
	movl	%ebp, %edx
	movq	%r13, %rcx
	movl	%r12d, %r8d
	callq	get_field_from_object
	cmpl	$0, 8(%rax)
	je	.LBB4_1
# BB#21:                                # %entry_ifend93
	movq	(%rax), %r9
	movq	24(%rsp), %rax          # 8-byte Reload
	addl	%eax, %r9d
	movl	$2, (%rsp)
	movq	%r15, %rdi
	movq	%r14, %rsi
	movl	%ebp, %edx
	movq	%r13, %rcx
	movl	%r12d, %r8d
.LBB4_22:                               # %entry_ifend93
	callq	store_field
	testl	%eax, %eax
	je	.LBB4_1
# BB#23:                                # %label_if_ende
	movl	$0, gSigInt(%rip)
	movl	40(%rsp), %eax
	movq	%rax, (%r14)
	movl	$1, %eax
	jmp	.LBB4_2
.LBB4_33:                               # %label_for_endg
	movl	40(%rsp), %r8d
	movl	$2, %r9d
	movq	%r15, %rdi
	movq	%r14, %rsi
	movl	%ebp, %edx
	movq	%rbx, %rcx
	callq	get_field_from_object
	cmpl	$0, 8(%rax)
	je	.LBB4_1
# BB#34:                                # %entry_ifend141
	movq	(%rax), %rax
	movq	$0, 80(%rsp)
	movl	%eax, %r13d
	jmp	.LBB4_35
.LBB4_41:                               # %entry_ifend171
                                        #   in Loop: Header=BB4_35 Depth=1
	incl	%r13d
	movq	$0, 80(%rsp)
.LBB4_35:                               # %for_start_pointh
                                        # =>This Inner Loop Header: Depth=1
	movq	%r13, 80(%rsp)
	movl	40(%rsp), %r8d
	movl	$2, %r9d
	movq	%r15, %rdi
	movq	%r14, %rsi
	movl	%ebp, %edx
	movq	%rbx, %rcx
	callq	get_field_from_object
	cmpl	$0, 8(%rax)
	je	.LBB4_1
# BB#36:                                # %entry_ifend146
                                        #   in Loop: Header=BB4_35 Depth=1
	movq	(%rax), %rax
	movq	24(%rsp), %rcx          # 8-byte Reload
	addl	%ecx, %eax
	movl	$0, gSigInt(%rip)
	cmpl	%eax, %r13d
	jge	.LBB4_42
# BB#37:                                # %entry_condend152
                                        #   in Loop: Header=BB4_35 Depth=1
	xorl	%r9d, %r9d
	movq	%r15, %rdi
	movq	%r14, %rsi
	movl	%ebp, %edx
	movq	%rbx, %rcx
	movq	16(%rsp), %r8           # 8-byte Reload
	callq	get_field_from_object
	cmpl	$0, 8(%rax)
	je	.LBB4_1
# BB#38:                                # %entry_ifend158
                                        #   in Loop: Header=BB4_35 Depth=1
	movq	(%rax), %r12
	movl	40(%rsp), %r8d
	movl	$2, %r9d
	movq	%r15, %rdi
	movq	%r14, %rsi
	movl	%ebp, %edx
	movq	%rbx, %rcx
	callq	get_field_from_object
	cmpl	$0, 8(%rax)
	je	.LBB4_1
# BB#39:                                # %entry_ifend163
                                        #   in Loop: Header=BB4_35 Depth=1
	movq	(%rax), %rax
	movl	%r13d, %r9d
	subl	%eax, %r9d
	movq	%r15, %rdi
	movq	%r14, %rsi
	movl	%ebp, %edx
	movq	%rbx, %rcx
	movl	%r12d, %r8d
	callq	load_element
	cmpl	$0, 8(%rax)
	je	.LBB4_1
# BB#40:                                # %entry_ifend168
                                        #   in Loop: Header=BB4_35 Depth=1
	movq	(%rax), %rax
	movl	%eax, %eax
	movq	%rax, (%rsp)
	movq	%r15, %rdi
	movq	%r14, %rsi
	movl	%ebp, %edx
	movq	%rbx, %rcx
	movq	32(%rsp), %r8           # 8-byte Reload
	movl	%r13d, %r9d
	callq	run_store_element
	testl	%eax, %eax
	jne	.LBB4_41
	jmp	.LBB4_1
.LBB4_42:                               # %label_for_endh
	movq	$0, (%rsp)
	movq	%r15, %rdi
	movq	%r14, %rsi
	movl	%ebp, %edx
	movq	%rbx, %rcx
	movq	32(%rsp), %r8           # 8-byte Reload
	movl	%r13d, %r9d
	callq	run_store_element
	testl	%eax, %eax
	je	.LBB4_1
# BB#43:                                # %entry_ifend180
	movl	$0, gSigInt(%rip)
	movl	40(%rsp), %r8d
	movq	32(%rsp), %rax          # 8-byte Reload
	movl	%eax, %r9d
	movl	$0, (%rsp)
	movq	%r15, %rdi
	movq	%r14, %rsi
	movl	%ebp, %edx
	movq	%rbx, %rcx
	callq	store_field
	testl	%eax, %eax
	je	.LBB4_1
# BB#44:                                # %entry_ifend185
	movl	$0, gSigInt(%rip)
	movl	40(%rsp), %r12d
	movl	$2, %r9d
	movq	%r15, %rdi
	movq	%r14, %rsi
	movl	%ebp, %edx
	movq	%rbx, %rcx
	movl	%r12d, %r8d
	callq	get_field_from_object
	cmpl	$0, 8(%rax)
	je	.LBB4_1
# BB#45:                                # %entry_ifend190
	movq	(%rax), %r9
	movq	24(%rsp), %rax          # 8-byte Reload
	addl	%eax, %r9d
	movl	$2, (%rsp)
	movq	%r15, %rdi
	movq	%r14, %rsi
	movl	%ebp, %edx
	movq	%rbx, %rcx
	movl	%r12d, %r8d
	callq	store_field
	testl	%eax, %eax
	je	.LBB4_1
# BB#46:                                # %entry_ifend195
	movl	$0, gSigInt(%rip)
	movl	40(%rsp), %r8d
	movq	8(%rsp), %rax           # 8-byte Reload
	movl	%eax, %r9d
	movl	$1, (%rsp)
	movq	%r15, %rdi
	movq	%r14, %rsi
	movl	%ebp, %edx
	movq	%rbx, %rcx
	jmp	.LBB4_22
.LBB4_1:                                # %then_block
	xorl	%eax, %eax
.LBB4_2:                                # %then_block
	addq	$88, %rsp
	popq	%rbx
	popq	%r12
	popq	%r13
	popq	%r14
	popq	%r15
	popq	%rbp
	retq
.Lfunc_end4:
	.size	"String.append(Self)$$8", .Lfunc_end4-"String.append(Self)$$8"
	.cfi_endproc

	.globl	"String.append(char)$$9"
	.align	16, 0x90
	.type	"String.append(char)$$9",@function
"String.append(char)$$9":               # @"String.append(char)$$9"
	.cfi_startproc
# BB#0:                                 # %entry
	pushq	%rbp
.Ltmp55:
	.cfi_def_cfa_offset 16
	pushq	%r15
.Ltmp56:
	.cfi_def_cfa_offset 24
	pushq	%r14
.Ltmp57:
	.cfi_def_cfa_offset 32
	pushq	%r13
.Ltmp58:
	.cfi_def_cfa_offset 40
	pushq	%r12
.Ltmp59:
	.cfi_def_cfa_offset 48
	pushq	%rbx
.Ltmp60:
	.cfi_def_cfa_offset 56
	subq	$88, %rsp
.Ltmp61:
	.cfi_def_cfa_offset 144
.Ltmp62:
	.cfi_offset %rbx, -56
.Ltmp63:
	.cfi_offset %r12, -48
.Ltmp64:
	.cfi_offset %r13, -40
.Ltmp65:
	.cfi_offset %r14, -32
.Ltmp66:
	.cfi_offset %r15, -24
.Ltmp67:
	.cfi_offset %rbp, -16
	movl	%r9d, %r15d
	movq	%r8, %r14
	movq	%rcx, %rbx
	movq	%rdx, %r12
	movq	(%rbx), %r8
	movq	%r8, 32(%rsp)           # 8-byte Spill
	movq	$0, 40(%rsp)
	movq	%r8, 40(%rsp)
	movq	8(%rbx), %rax
	movq	%rax, 24(%rsp)          # 8-byte Spill
	movq	$0, 48(%rsp)
	movq	%rax, 48(%rsp)
	movq	$0, 56(%rsp)
	movq	$0, 64(%rsp)
	movq	$0, 72(%rsp)
	movq	$0, 80(%rsp)
	movl	$0, gSigInt(%rip)
	movq	$0, 56(%rsp)
	movq	$1, 56(%rsp)
	movl	$0, gSigInt(%rip)
	movl	$2, %r9d
	movq	%r14, %rdi
	movq	%rbx, %rsi
	movl	%r15d, %edx
	movq	%r12, %rcx
	callq	get_field_from_object
	cmpl	$0, 8(%rax)
	je	.LBB5_1
# BB#3:                                 # %entry_ifend
	movq	(%rax), %rbp
	movl	$1, %r9d
	movq	%r14, %rdi
	movq	%rbx, %rsi
	movl	%r15d, %edx
	movq	%r12, %rcx
	movq	32(%rsp), %r8           # 8-byte Reload
	callq	get_field_from_object
	cmpl	$0, 8(%rax)
	je	.LBB5_1
# BB#4:                                 # %entry_ifend7
	addl	$2, %ebp
	movq	(%rax), %rax
	movl	$0, gSigInt(%rip)
	cmpl	%eax, %ebp
	jge	.LBB5_15
# BB#5:                                 # %entry_condend
	xorl	%r9d, %r9d
	movq	%r14, %rdi
	movq	%rbx, %rsi
	movl	%r15d, %edx
	movq	%r12, %rcx
	movq	32(%rsp), %r8           # 8-byte Reload
	callq	get_field_from_object
	cmpl	$0, 8(%rax)
	je	.LBB5_1
# BB#6:                                 # %entry_ifend11
	movq	(%rax), %r13
	movl	$2, %r9d
	movq	%r14, %rdi
	movq	%rbx, %rsi
	movl	%r15d, %edx
	movq	%r12, %rcx
	movq	32(%rsp), %r8           # 8-byte Reload
	callq	get_field_from_object
	cmpl	$0, 8(%rax)
	je	.LBB5_1
# BB#7:                                 # %entry_ifend15
	movq	(%rax), %r9
	movq	24(%rsp), %rax          # 8-byte Reload
	movl	%eax, %eax
	movq	%rax, (%rsp)
	movq	%r14, %rdi
	movq	%rbx, %rsi
	movl	%r15d, %edx
	movq	%r12, %rcx
	movl	%r13d, %r8d
	callq	run_store_element
	testl	%eax, %eax
	je	.LBB5_1
# BB#8:                                 # %entry_ifend19
	movl	$0, gSigInt(%rip)
	xorl	%r9d, %r9d
	movq	%r14, %rdi
	movq	%rbx, %rsi
	movl	%r15d, %edx
	movq	%r12, %rcx
	movq	32(%rsp), %r8           # 8-byte Reload
	callq	get_field_from_object
	cmpl	$0, 8(%rax)
	je	.LBB5_1
# BB#9:                                 # %entry_ifend23
	movq	(%rax), %r13
	movl	$2, %r9d
	movq	%r14, %rdi
	movq	%rbx, %rsi
	movl	%r15d, %edx
	movq	%r12, %rcx
	movq	32(%rsp), %r8           # 8-byte Reload
	callq	get_field_from_object
	cmpl	$0, 8(%rax)
	je	.LBB5_1
# BB#10:                                # %entry_ifend27
	movq	(%rax), %r9
	incl	%r9d
	movq	$0, (%rsp)
	movq	%r14, %rdi
	movq	%rbx, %rsi
	movl	%r15d, %edx
	movq	%r12, %rcx
	movl	%r13d, %r8d
	callq	run_store_element
	testl	%eax, %eax
	je	.LBB5_1
# BB#11:                                # %entry_ifend31
	movl	$0, gSigInt(%rip)
	movl	$2, %r9d
	movq	%r14, %rdi
	movq	%rbx, %rsi
	movl	%r15d, %edx
	movq	%r12, %rcx
	movq	32(%rsp), %r8           # 8-byte Reload
	callq	get_field_from_object
	cmpl	$0, 8(%rax)
	je	.LBB5_1
# BB#12:                                # %entry_ifend36
	movq	(%rax), %r9
	incl	%r9d
	movl	$2, (%rsp)
	jmp	.LBB5_13
.LBB5_15:                               # %label_elsei
	movl	$2, %r9d
	movq	%r14, %rdi
	movq	%rbx, %rsi
	movl	%r15d, %edx
	movq	%r12, %rcx
	movq	32(%rsp), %r8           # 8-byte Reload
	callq	get_field_from_object
	cmpl	$0, 8(%rax)
	je	.LBB5_1
# BB#16:                                # %entry_ifend46
	movq	144(%rsp), %rdi
	movq	(%rax), %rax
	leal	4(%rax,%rax), %eax
	movq	%rax, 16(%rsp)          # 8-byte Spill
	movq	$0, 64(%rsp)
	movq	%rax, 64(%rsp)
	movl	$0, gSigInt(%rip)
	movl	$4508, %esi             # imm = 0x119C
	callq	get_class_with_load_and_initialize_in_jit
	testq	%rax, %rax
	je	.LBB5_1
# BB#17:                                # %entry_ifend53
	movq	%rax, %rdi
	movq	16(%rsp), %rsi          # 8-byte Reload
	callq	create_array_object
	movl	%eax, %r13d
	movl	%r13d, %edi
	callq	push_jit_object
	movq	$0, 72(%rsp)
	movl	%r13d, %ebp
	movq	%rbp, 72(%rsp)
	movl	$0, gSigInt(%rip)
	movq	$0, 80(%rsp)
	xorl	%r13d, %r13d
	jmp	.LBB5_18
	.align	16, 0x90
.LBB5_23:                               # %entry_ifend75
                                        #   in Loop: Header=BB5_18 Depth=1
	incl	%r13d
	movq	$0, 80(%rsp)
	movq	%r13, 80(%rsp)
.LBB5_18:                               # %for_start_pointj
                                        # =>This Inner Loop Header: Depth=1
	movl	$2, %r9d
	movq	%r14, %rdi
	movq	%rbx, %rsi
	movl	%r15d, %edx
	movq	%r12, %rcx
	movq	32(%rsp), %r8           # 8-byte Reload
	callq	get_field_from_object
	cmpl	$0, 8(%rax)
	je	.LBB5_1
# BB#19:                                # %entry_ifend58
                                        #   in Loop: Header=BB5_18 Depth=1
	movq	(%rax), %rax
	movl	$0, gSigInt(%rip)
	cmpl	%eax, %r13d
	jge	.LBB5_24
# BB#20:                                # %entry_condend62
                                        #   in Loop: Header=BB5_18 Depth=1
	xorl	%r9d, %r9d
	movq	%r14, %rdi
	movq	%rbx, %rsi
	movl	%r15d, %edx
	movq	%r12, %rcx
	movq	32(%rsp), %r8           # 8-byte Reload
	callq	get_field_from_object
	cmpl	$0, 8(%rax)
	je	.LBB5_1
# BB#21:                                # %entry_ifend68
                                        #   in Loop: Header=BB5_18 Depth=1
	movq	(%rax), %r8
	movq	%r14, %rdi
	movq	%rbx, %rsi
	movl	%r15d, %edx
	movq	%r12, %rcx
	movl	%r13d, %r9d
	callq	load_element
	cmpl	$0, 8(%rax)
	je	.LBB5_1
# BB#22:                                # %entry_ifend72
                                        #   in Loop: Header=BB5_18 Depth=1
	movq	(%rax), %rax
	movl	%eax, %eax
	movq	%rax, (%rsp)
	movq	%r14, %rdi
	movq	%rbx, %rsi
	movl	%r15d, %edx
	movq	%r12, %rcx
	movl	%ebp, %r8d
	movl	%r13d, %r9d
	callq	run_store_element
	testl	%eax, %eax
	jne	.LBB5_23
	jmp	.LBB5_1
.LBB5_24:                               # %label_for_endj
	movq	24(%rsp), %rax          # 8-byte Reload
	movl	%eax, %eax
	movq	%rax, (%rsp)
	movq	%r14, %rdi
	movq	%rbx, %rsi
	movl	%r15d, %edx
	movq	%r12, %rcx
	movl	%ebp, %r8d
	movl	%r13d, %r9d
	callq	run_store_element
	testl	%eax, %eax
	je	.LBB5_1
# BB#25:                                # %entry_ifend84
	movl	$0, gSigInt(%rip)
	incl	%r13d
	movq	$0, (%rsp)
	movq	%r14, %rdi
	movq	%rbx, %rsi
	movl	%r15d, %edx
	movq	%r12, %rcx
	movl	%ebp, %r8d
	movl	%r13d, %r9d
	callq	run_store_element
	testl	%eax, %eax
	je	.LBB5_1
# BB#26:                                # %entry_ifend90
	movl	$0, gSigInt(%rip)
	movl	%ebp, %r9d
	movl	$0, (%rsp)
	movq	%r14, %rdi
	movq	%rbx, %rsi
	movl	%r15d, %edx
	movq	%r12, %rcx
	movq	32(%rsp), %r8           # 8-byte Reload
	callq	store_field
	testl	%eax, %eax
	je	.LBB5_1
# BB#27:                                # %entry_ifend95
	movl	$0, gSigInt(%rip)
	movl	$2, %r9d
	movq	%r14, %rdi
	movq	%rbx, %rsi
	movl	%r15d, %edx
	movq	%r12, %rcx
	movq	32(%rsp), %r8           # 8-byte Reload
	callq	get_field_from_object
	cmpl	$0, 8(%rax)
	je	.LBB5_1
# BB#28:                                # %entry_ifend100
	movq	(%rax), %r9
	incl	%r9d
	movl	$2, (%rsp)
	movq	%r14, %rdi
	movq	%rbx, %rsi
	movl	%r15d, %edx
	movq	%r12, %rcx
	movq	32(%rsp), %r8           # 8-byte Reload
	callq	store_field
	testl	%eax, %eax
	je	.LBB5_1
# BB#29:                                # %entry_ifend105
	movl	$0, gSigInt(%rip)
	movq	16(%rsp), %rax          # 8-byte Reload
	movl	%eax, %r9d
	movl	$1, (%rsp)
.LBB5_13:                               # %entry_ifend36
	movq	%r14, %rdi
	movq	%rbx, %rsi
	movl	%r15d, %edx
	movq	%r12, %rcx
	movq	32(%rsp), %r8           # 8-byte Reload
	callq	store_field
	testl	%eax, %eax
	je	.LBB5_1
# BB#14:                                # %label_if_endi
	movl	$0, gSigInt(%rip)
	movq	32(%rsp), %rax          # 8-byte Reload
	movl	%eax, %eax
	movq	%rax, (%rbx)
	movl	$1, %eax
	jmp	.LBB5_2
.LBB5_1:                                # %then_block
	xorl	%eax, %eax
.LBB5_2:                                # %then_block
	addq	$88, %rsp
	popq	%rbx
	popq	%r12
	popq	%r13
	popq	%r14
	popq	%r15
	popq	%rbp
	retq
.Lfunc_end5:
	.size	"String.append(char)$$9", .Lfunc_end5-"String.append(char)$$9"
	.cfi_endproc

	.globl	"String.replace(int,char)$$10"
	.align	16, 0x90
	.type	"String.replace(int,char)$$10",@function
"String.replace(int,char)$$10":         # @"String.replace(int,char)$$10"
	.cfi_startproc
# BB#0:                                 # %entry
	pushq	%rbp
.Ltmp68:
	.cfi_def_cfa_offset 16
	pushq	%r15
.Ltmp69:
	.cfi_def_cfa_offset 24
	pushq	%r14
.Ltmp70:
	.cfi_def_cfa_offset 32
	pushq	%r13
.Ltmp71:
	.cfi_def_cfa_offset 40
	pushq	%r12
.Ltmp72:
	.cfi_def_cfa_offset 48
	pushq	%rbx
.Ltmp73:
	.cfi_def_cfa_offset 56
	subq	$40, %rsp
.Ltmp74:
	.cfi_def_cfa_offset 96
.Ltmp75:
	.cfi_offset %rbx, -56
.Ltmp76:
	.cfi_offset %r12, -48
.Ltmp77:
	.cfi_offset %r13, -40
.Ltmp78:
	.cfi_offset %r14, -32
.Ltmp79:
	.cfi_offset %r15, -24
.Ltmp80:
	.cfi_offset %rbp, -16
	movl	%r9d, %r14d
	movq	%r8, %r12
	movq	%rcx, %rbx
	movq	%rdx, %r15
	movq	(%rbx), %r13
	movq	$0, 16(%rsp)
	movq	%r13, 16(%rsp)
	movq	8(%rbx), %rbp
	movq	$0, 24(%rsp)
	movq	%rbp, 24(%rsp)
	movq	16(%rbx), %rax
	movq	%rax, 8(%rsp)           # 8-byte Spill
	movq	$0, 32(%rsp)
	movq	%rax, 32(%rsp)
	movl	$0, gSigInt(%rip)
	testl	%ebp, %ebp
	jns	.LBB6_5
# BB#1:                                 # %entry_condend
	movl	$0, gSigInt(%rip)
	movl	$2, %r9d
	movq	%r12, %rdi
	movq	%rbx, %rsi
	movl	%r14d, %edx
	movq	%r15, %rcx
	movl	%r13d, %r8d
	callq	get_field_from_object
	cmpl	$0, 8(%rax)
	je	.LBB6_2
# BB#4:                                 # %entry_ifend
	movq	(%rax), %rax
	addl	%eax, %ebp
	movq	$0, 24(%rsp)
	movq	%rbp, 24(%rsp)
.LBB6_5:                                # %label_if_endk
	movl	$0, gSigInt(%rip)
	testl	%ebp, %ebp
	jns	.LBB6_7
# BB#6:                                 # %entry_condend11
	movl	$0, gSigInt(%rip)
	movq	$0, 24(%rsp)
	xorl	%ebp, %ebp
.LBB6_7:                                # %label_if_endl
	movl	$0, gSigInt(%rip)
	movl	$2, %r9d
	movq	%r12, %rdi
	movq	%rbx, %rsi
	movl	%r14d, %edx
	movq	%r15, %rcx
	movl	%r13d, %r8d
	callq	get_field_from_object
	cmpl	$0, 8(%rax)
	je	.LBB6_2
# BB#8:                                 # %entry_ifend17
	movq	(%rax), %rax
	cmpl	%eax, %ebp
	jl	.LBB6_11
# BB#9:                                 # %entry_condend20
	movl	$0, gSigInt(%rip)
	movl	$2, %r9d
	movq	%r12, %rdi
	movq	%rbx, %rsi
	movl	%r14d, %edx
	movq	%r15, %rcx
	movl	%r13d, %r8d
	callq	get_field_from_object
	cmpl	$0, 8(%rax)
	je	.LBB6_2
# BB#10:                                # %entry_ifend24
	movq	(%rax), %rbp
	decl	%ebp
	movq	$0, 24(%rsp)
	movq	%rbp, 24(%rsp)
.LBB6_11:                               # %label_if_endm
	movl	$0, gSigInt(%rip)
	xorl	%r9d, %r9d
	movq	%r12, %rdi
	movq	%rbx, %rsi
	movl	%r14d, %edx
	movq	%r15, %rcx
	movl	%r13d, %r8d
	callq	get_field_from_object
	cmpl	$0, 8(%rax)
	je	.LBB6_2
# BB#12:                                # %entry_ifend29
	movq	(%rax), %r8
	movq	8(%rsp), %rax           # 8-byte Reload
	movl	%eax, %eax
	movq	%rax, (%rsp)
	movq	%r12, %rdi
	movq	%rbx, %rsi
	movl	%r14d, %edx
	movq	%r15, %rcx
	movl	%ebp, %r9d
	callq	run_store_element
	testl	%eax, %eax
	je	.LBB6_2
# BB#13:                                # %entry_ifend34
	movq	$0, (%rbx)
	movl	$1, %eax
	jmp	.LBB6_3
.LBB6_2:                                # %then_block
	xorl	%eax, %eax
.LBB6_3:                                # %then_block
	addq	$40, %rsp
	popq	%rbx
	popq	%r12
	popq	%r13
	popq	%r14
	popq	%r15
	popq	%rbp
	retq
.Lfunc_end6:
	.size	"String.replace(int,char)$$10", .Lfunc_end6-"String.replace(int,char)$$10"
	.cfi_endproc

	.globl	"String.printf(Self)$$11"
	.align	16, 0x90
	.type	"String.printf(Self)$$11",@function
"String.printf(Self)$$11":              # @"String.printf(Self)$$11"
	.cfi_startproc
# BB#0:                                 # %entry
	pushq	%rbp
.Ltmp81:
	.cfi_def_cfa_offset 16
	pushq	%r15
.Ltmp82:
	.cfi_def_cfa_offset 24
	pushq	%r14
.Ltmp83:
	.cfi_def_cfa_offset 32
	pushq	%r13
.Ltmp84:
	.cfi_def_cfa_offset 40
	pushq	%r12
.Ltmp85:
	.cfi_def_cfa_offset 48
	pushq	%rbx
.Ltmp86:
	.cfi_def_cfa_offset 56
	subq	$56, %rsp
.Ltmp87:
	.cfi_def_cfa_offset 112
.Ltmp88:
	.cfi_offset %rbx, -56
.Ltmp89:
	.cfi_offset %r12, -48
.Ltmp90:
	.cfi_offset %r13, -40
.Ltmp91:
	.cfi_offset %r14, -32
.Ltmp92:
	.cfi_offset %r15, -24
.Ltmp93:
	.cfi_offset %rbp, -16
	movl	%r9d, %ebx
	movl	%ebx, 28(%rsp)          # 4-byte Spill
	movq	%r8, %r13
	movq	%rcx, %r14
	movq	%rdx, %rbp
	movq	%rbp, 32(%rsp)          # 8-byte Spill
	movq	%rsi, 16(%rsp)          # 8-byte Spill
	movq	112(%rsp), %rdx
	movq	(%r14), %r15
	movq	$0, 40(%rsp)
	movq	%r15, 40(%rsp)
	movq	8(%r14), %r12
	movq	$0, 48(%rsp)
	movq	%r12, 48(%rsp)
	movl	$0, gSigInt(%rip)
	movq	(%r13), %rax
	movq	$0, (%rax)
	movl	%r15d, %ecx
	movq	%rcx, (%rax)
	addq	$8, (%r13)
	movq	%rdx, (%rsp)
	movl	$1, %r8d
	movl	$4764, %r9d             # imm = 0x129C
	movq	%r13, %rdi
	movq	%r14, %rsi
	movl	%ebx, %edx
	movq	%rbp, %rcx
	callq	run_create_carray
	cmpl	$0, 8(%rax)
	je	.LBB7_1
# BB#3:                                 # %entry_ifend
	movq	(%rax), %rbp
	movl	%ebp, %edi
	callq	push_jit_object
	movl	$4772, %esi             # imm = 0x12A4
	movq	112(%rsp), %rdi
	callq	get_class_with_load_and_initialize_in_jit
	testq	%rax, %rax
	je	.LBB7_1
# BB#4:                                 # %entry_ifend6
	movq	16(%rsp), %rcx          # 8-byte Reload
	movq	$0, (%rcx)
	movq	%r15, (%rcx)
	movq	$0, 8(%rcx)
	movq	%r12, 8(%rcx)
	movq	(%r13), %rcx
	movq	$0, (%rcx)
	movl	%r12d, %edx
	movq	%rdx, (%rcx)
	movq	(%r13), %rcx
	leaq	8(%rcx), %rdx
	movq	%rdx, (%r13)
	movq	$0, 8(%rcx)
	movq	%rbp, 8(%rcx)
	addq	$8, (%r13)
	movl	$5, %esi
	movq	%rax, %rdi
	movq	%r14, %rdx
	movl	28(%rsp), %ecx          # 4-byte Reload
	movq	%r13, %r8
	movq	32(%rsp), %rbp          # 8-byte Reload
	movq	%rbp, %r9
	callq	call_invoke_method
	cmpl	$1, %eax
	je	.LBB7_6
# BB#5:                                 # %then_block18
	movq	%rbp, %rdi
	callq	get_try_catch_label_name
.LBB7_1:                                # %then_block
	xorl	%eax, %eax
	jmp	.LBB7_2
.LBB7_6:                                # %entry_ifend19
	movq	(%r14), %rax
	movq	$0, 40(%rsp)
	movq	%rax, 40(%rsp)
	movq	8(%r14), %rax
	movq	$0, 48(%rsp)
	movq	%rax, 48(%rsp)
	movq	(%r13), %rax
	movl	-8(%rax), %edi
	callq	push_jit_object
	addq	$-8, (%r13)
	movq	$0, (%r14)
	movl	$1, %eax
.LBB7_2:                                # %then_block
	addq	$56, %rsp
	popq	%rbx
	popq	%r12
	popq	%r13
	popq	%r14
	popq	%r15
	popq	%rbp
	retq
.Lfunc_end7:
	.size	"String.printf(Self)$$11", .Lfunc_end7-"String.printf(Self)$$11"
	.cfi_endproc

	.globl	"String.insert(int,Self)$$12"
	.align	16, 0x90
	.type	"String.insert(int,Self)$$12",@function
"String.insert(int,Self)$$12":          # @"String.insert(int,Self)$$12"
	.cfi_startproc
# BB#0:                                 # %entry
	pushq	%rbp
.Ltmp94:
	.cfi_def_cfa_offset 16
	pushq	%r15
.Ltmp95:
	.cfi_def_cfa_offset 24
	pushq	%r14
.Ltmp96:
	.cfi_def_cfa_offset 32
	pushq	%r13
.Ltmp97:
	.cfi_def_cfa_offset 40
	pushq	%r12
.Ltmp98:
	.cfi_def_cfa_offset 48
	pushq	%rbx
.Ltmp99:
	.cfi_def_cfa_offset 56
	subq	$104, %rsp
.Ltmp100:
	.cfi_def_cfa_offset 160
.Ltmp101:
	.cfi_offset %rbx, -56
.Ltmp102:
	.cfi_offset %r12, -48
.Ltmp103:
	.cfi_offset %r13, -40
.Ltmp104:
	.cfi_offset %r14, -32
.Ltmp105:
	.cfi_offset %r15, -24
.Ltmp106:
	.cfi_offset %rbp, -16
	movl	%r9d, %eax
	movq	%r8, %rdi
	movq	%rcx, %rbx
	movq	%rdx, %rcx
	movq	%rsi, %r13
	movq	(%rbx), %r8
	movq	$0, 48(%rsp)
	movq	%r8, 48(%rsp)
	movq	8(%rbx), %r15
	movq	$0, 56(%rsp)
	movq	%r15, 56(%rsp)
	movq	16(%rbx), %rdx
	movq	%rdx, 40(%rsp)          # 8-byte Spill
	movq	$0, 64(%rsp)
	movq	%rdx, 64(%rsp)
	movq	$0, 72(%rsp)
	movq	$0, 80(%rsp)
	movq	$0, 88(%rsp)
	movq	$0, 96(%rsp)
	movl	$0, gSigInt(%rip)
	testl	%r15d, %r15d
	jns	.LBB8_5
# BB#1:                                 # %entry_condend
	movl	$0, gSigInt(%rip)
	movl	$2, %r9d
	movq	%rbx, %rsi
	movl	%eax, %edx
	movq	%rcx, %r14
	movq	%rdi, %r12
	movl	%eax, %ebp
	callq	get_field_from_object
	cmpl	$0, 8(%rax)
	je	.LBB8_2
# BB#4:                                 # %entry_ifend
	movq	(%rax), %rax
	leal	1(%r15,%rax), %r15d
	movq	$0, 56(%rsp)
	movq	%r15, 56(%rsp)
	movl	%ebp, %eax
	movq	%r14, %rcx
	movq	%r12, %rdi
.LBB8_5:                                # %label_if_endzzzzzzzzzzzzzzzzo
	movl	$0, gSigInt(%rip)
	testl	%r15d, %r15d
	jns	.LBB8_7
# BB#6:                                 # %entry_condend12
	movl	$0, gSigInt(%rip)
	movq	$0, 56(%rsp)
	xorl	%r15d, %r15d
.LBB8_7:                                # %label_if_endzzzzzzzzzzzzzzzzp
	movl	$0, gSigInt(%rip)
	movl	48(%rsp), %r8d
	movl	$2, %r9d
	movq	%rbx, %rsi
	movl	%eax, %edx
	movq	%rdi, %r12
	movq	%rcx, %rbp
	movl	%eax, %r14d
	callq	get_field_from_object
	cmpl	$0, 8(%rax)
	je	.LBB8_2
# BB#8:                                 # %entry_ifend18
	movq	%r12, 32(%rsp)          # 8-byte Spill
	movq	%rbx, %r12
	movq	(%rax), %rax
	cmpl	%eax, %r15d
	jle	.LBB8_11
# BB#9:                                 # %entry_condend21
	movl	$0, gSigInt(%rip)
	movl	48(%rsp), %r8d
	movl	$2, %r9d
	movq	32(%rsp), %rdi          # 8-byte Reload
	movq	%r12, %rsi
	movl	%r14d, %edx
	movq	%rbp, %rbx
	movq	%rbx, %rcx
	callq	get_field_from_object
	cmpl	$0, 8(%rax)
	je	.LBB8_2
# BB#10:                                # %entry_ifend25
	movq	%rbx, %rbp
	movq	(%rax), %rax
	movq	$0, 56(%rsp)
	movl	%eax, %r15d
	movq	%r15, 56(%rsp)
.LBB8_11:                               # %label_if_endzzzzzzzzzzzzzzzzq
	movq	160(%rsp), %rdi
	movl	$0, gSigInt(%rip)
	movl	$5068, %esi             # imm = 0x13CC
	callq	get_class_with_load_and_initialize_in_jit
	testq	%rax, %rax
	movq	%rbp, %rbx
	movq	32(%rsp), %rbp          # 8-byte Reload
	je	.LBB8_2
# BB#12:                                # %entry_ifend30
	movq	48(%rsp), %rcx
	movq	$0, (%r13)
	movq	%rcx, (%r13)
	movq	$0, 8(%r13)
	movq	%r15, 8(%r13)
	movq	$0, 16(%r13)
	movq	40(%rsp), %rdx          # 8-byte Reload
	movq	%rdx, 16(%r13)
	movq	$0, 24(%r13)
	movq	80(%rsp), %rcx
	movq	$0, 32(%r13)
	movq	%rcx, 32(%r13)
	movq	$0, 40(%r13)
	movq	96(%rsp), %rcx
	movq	$0, 48(%r13)
	movq	%rcx, 48(%r13)
	movq	(%rbp), %rcx
	movq	$0, (%rcx)
	movl	%edx, %edx
	movq	%rdx, (%rcx)
	addq	$8, (%rbp)
	movl	$7, %esi
	movq	%rax, %rdi
	movq	%r12, %rdx
	movl	%r14d, %ecx
	movq	%rbp, %r8
	movq	%rbx, %r9
	callq	call_invoke_method
	cmpl	$1, %eax
	movq	%rbx, %r15
	je	.LBB8_14
# BB#13:                                # %then_block47
	movq	%r15, %rdi
	callq	get_try_catch_label_name
	jmp	.LBB8_2
.LBB8_14:                               # %entry_ifend48
	movq	(%r12), %rax
	movq	$0, 48(%rsp)
	movq	%rax, 48(%rsp)
	movq	8(%r12), %rax
	movq	%rax, 24(%rsp)          # 8-byte Spill
	movq	$0, 56(%rsp)
	movq	%rax, 56(%rsp)
	movq	16(%r12), %rax
	movq	%rax, 16(%rsp)          # 8-byte Spill
	movq	$0, 64(%rsp)
	movq	%rax, 64(%rsp)
	movq	24(%r12), %rax
	movq	$0, 72(%rsp)
	movq	%rax, 72(%rsp)
	movq	32(%r12), %rax
	movq	$0, 80(%rsp)
	movq	%rax, 80(%rsp)
	movq	40(%r12), %rax
	movq	$0, 88(%rsp)
	movq	%rax, 88(%rsp)
	movq	48(%r12), %rax
	movq	$0, 96(%rsp)
	movq	%rax, 96(%rsp)
	movq	(%rbp), %rax
	movq	-8(%rax), %rbx
	movq	%rbx, 40(%rsp)          # 8-byte Spill
	movl	%ebx, %edi
	callq	push_jit_object
	addq	$-8, (%rbp)
	movq	$0, 72(%rsp)
	movq	%rbx, 72(%rsp)
	movl	$0, gSigInt(%rip)
	movl	48(%rsp), %r8d
	movl	$2, %r9d
	movq	%rbp, %rdi
	movq	%r12, %rsi
	movl	%r14d, %edx
	movq	%r15, %rcx
	callq	get_field_from_object
	cmpl	$0, 8(%rax)
	movq	%r15, %rbx
	je	.LBB8_2
# BB#15:                                # %entry_ifend68
	movq	(%rax), %r15
	movl	48(%rsp), %r8d
	movl	$1, %r9d
	movq	%rbp, %rdi
	movq	%r12, %rsi
	movl	%r14d, %edx
	movq	%rbx, %rcx
	callq	get_field_from_object
	cmpl	$0, 8(%rax)
	je	.LBB8_2
# BB#16:                                # %entry_ifend75
	movq	%rbp, %rsi
	movq	%rbx, %rbp
	movq	40(%rsp), %rcx          # 8-byte Reload
	leal	1(%r15,%rcx), %ecx
	movq	(%rax), %rax
	movl	$0, gSigInt(%rip)
	cmpl	%eax, %ecx
	jge	.LBB8_38
# BB#17:                                # %entry_condend79
	movq	$0, 80(%rsp)
	movq	24(%rsp), %rax          # 8-byte Reload
	movl	%eax, %r15d
	movq	%r15, 8(%rsp)           # 8-byte Spill
	jmp	.LBB8_18
.LBB8_24:                               # %entry_ifend107
                                        #   in Loop: Header=BB8_18 Depth=1
	movq	%rbx, %rsi
	movq	%r15, %rbp
	movl	80(%rsp), %r15d
	incl	%r15d
	movq	$0, 80(%rsp)
.LBB8_18:                               # %for_start_pointzzzzzzzzzzzzzzzzs
                                        # =>This Inner Loop Header: Depth=1
	movq	%r15, 80(%rsp)
	movl	48(%rsp), %r8d
	movl	$2, %r9d
	movq	%rsi, %rbx
	movq	%rbx, %rdi
	movq	%r12, %rsi
	movl	%r14d, %edx
	movq	%rbp, %rcx
	callq	get_field_from_object
	cmpl	$0, 8(%rax)
	je	.LBB8_2
# BB#19:                                # %entry_ifend85
                                        #   in Loop: Header=BB8_18 Depth=1
	movq	(%rax), %rax
	movq	%rax, 32(%rsp)          # 8-byte Spill
	movl	$0, gSigInt(%rip)
	movl	48(%rsp), %r8d
	xorl	%r9d, %r9d
	movq	%rbx, %rdi
	movq	%r12, %r13
	movq	%rbx, %r12
	movq	%r13, %rsi
	movl	%r14d, %edx
	movq	%rbp, %rcx
	callq	get_field_from_object
	movq	(%rax), %rcx
	movq	%rcx, 24(%rsp)          # 8-byte Spill
	movl	8(%rax), %eax
	movq	32(%rsp), %rcx          # 8-byte Reload
	cmpl	%ecx, %r15d
	jge	.LBB8_25
# BB#20:                                # %entry_condend89
                                        #   in Loop: Header=BB8_18 Depth=1
	testl	%eax, %eax
	movq	%rbp, %r15
	movq	%r12, %rbx
	movq	%r13, %r12
	je	.LBB8_2
# BB#21:                                # %entry_ifend93
                                        #   in Loop: Header=BB8_18 Depth=1
	movl	80(%rsp), %ebp
	movq	40(%rsp), %rax          # 8-byte Reload
	addl	%eax, %ebp
	movl	48(%rsp), %r8d
	xorl	%r9d, %r9d
	movq	%rbx, %rdi
	movq	%r12, %rsi
	movl	%r14d, %edx
	movq	%r15, %rcx
	callq	get_field_from_object
	cmpl	$0, 8(%rax)
	je	.LBB8_2
# BB#22:                                # %entry_ifend100
                                        #   in Loop: Header=BB8_18 Depth=1
	movq	(%rax), %r8
	movl	80(%rsp), %r9d
	movq	%rbx, %rdi
	movq	%r12, %rsi
	movl	%r14d, %edx
	movq	%r15, %rcx
	callq	load_element
	cmpl	$0, 8(%rax)
	je	.LBB8_2
# BB#23:                                # %entry_ifend104
                                        #   in Loop: Header=BB8_18 Depth=1
	movq	(%rax), %rax
	movl	%eax, %eax
	movq	%rax, (%rsp)
	movq	%rbx, %rdi
	movq	%r12, %rsi
	movl	%r14d, %edx
	movq	%r15, %rcx
	movq	24(%rsp), %r8           # 8-byte Reload
	movl	%ebp, %r9d
	callq	run_store_element
	testl	%eax, %eax
	jne	.LBB8_24
	jmp	.LBB8_2
.LBB8_38:                               # %label_elsezzzzzzzzzzzzzzzzr
	movl	48(%rsp), %r8d
	movl	$2, %r9d
	movq	%rsi, %r15
	movq	%r15, %rdi
	movq	%r12, %rsi
	movl	%r14d, %ebx
	movl	%ebx, %edx
	movq	%rbp, %rcx
	callq	get_field_from_object
	cmpl	$0, 8(%rax)
	je	.LBB8_2
# BB#39:                                # %entry_ifend162
	movq	(%rax), %rax
	movq	40(%rsp), %rcx          # 8-byte Reload
	addl	%ecx, %eax
	leal	3(%rax,%rax), %r14d
	movq	$0, 80(%rsp)
	movq	%r14, 80(%rsp)
	movl	$0, gSigInt(%rip)
	movl	$5436, %esi             # imm = 0x153C
	movq	160(%rsp), %rdi
	callq	get_class_with_load_and_initialize_in_jit
	testq	%rax, %rax
	je	.LBB8_2
# BB#40:                                # %entry_ifend170
	movq	%r15, %r13
	movq	%rax, %rdi
	movl	%r14d, %esi
	callq	create_array_object
	movl	%eax, %r14d
	movl	%r14d, %edi
	callq	push_jit_object
	movq	$0, 88(%rsp)
	movl	%r14d, %eax
	movq	%rax, 8(%rsp)           # 8-byte Spill
	movq	%rax, 88(%rsp)
	movl	$0, gSigInt(%rip)
	movq	$0, 96(%rsp)
	xorl	%r14d, %r14d
	jmp	.LBB8_41
.LBB8_45:                               # %entry_ifend190
                                        #   in Loop: Header=BB8_41 Depth=1
	movq	%rbx, %r13
	movl	%r15d, %ebx
	movl	96(%rsp), %r14d
	incl	%r14d
	movq	$0, 96(%rsp)
	movq	%r14, 96(%rsp)
.LBB8_41:                               # %for_start_pointzzzzzzzzzzzzzzzzu
                                        # =>This Inner Loop Header: Depth=1
	movl	$0, gSigInt(%rip)
	movq	24(%rsp), %rax          # 8-byte Reload
	cmpl	%eax, %r14d
	movl	%ebx, %edx
	jge	.LBB8_46
# BB#42:                                # %entry_condend176
                                        #   in Loop: Header=BB8_41 Depth=1
	movl	48(%rsp), %r8d
	xorl	%r9d, %r9d
	movq	%r13, %rbx
	movq	%rbx, %rdi
	movq	%r12, %rsi
	movq	%rbp, %rcx
	movl	%edx, %r15d
	callq	get_field_from_object
	cmpl	$0, 8(%rax)
	je	.LBB8_2
# BB#43:                                # %entry_ifend182
                                        #   in Loop: Header=BB8_41 Depth=1
	movq	(%rax), %r8
	movl	96(%rsp), %r9d
	movq	%rbx, %rdi
	movq	%r12, %rsi
	movl	%r15d, %edx
	movq	%rbp, %rcx
	callq	load_element
	cmpl	$0, 8(%rax)
	je	.LBB8_2
# BB#44:                                # %entry_ifend187
                                        #   in Loop: Header=BB8_41 Depth=1
	movq	(%rax), %rax
	movl	%eax, %eax
	movq	%rax, (%rsp)
	movq	%rbx, %rdi
	movq	%r12, %rsi
	movl	%r15d, %edx
	movq	%rbp, %rcx
	movq	8(%rsp), %r8            # 8-byte Reload
	movl	%r14d, %r9d
	callq	run_store_element
	testl	%eax, %eax
	jne	.LBB8_45
	jmp	.LBB8_2
.LBB8_25:                               # %label_for_endzzzzzzzzzzzzzzzzs
	testl	%eax, %eax
	movq	%r12, %rbx
	movq	%r13, %r12
	je	.LBB8_2
# BB#26:                                # %entry_ifend114
	movl	80(%rsp), %r9d
	movq	$0, (%rsp)
	movq	%rbx, %rdi
	movq	%r12, %rsi
	movl	%r14d, %edx
	movq	%rbp, %rcx
	movq	24(%rsp), %r8           # 8-byte Reload
	callq	run_store_element
	testl	%eax, %eax
	je	.LBB8_2
# BB#27:                                # %entry_ifend118
	movq	%rbx, %r15
	movl	%r14d, %ebx
	movl	$0, gSigInt(%rip)
	movq	$0, 80(%rsp)
	xorl	%eax, %eax
	jmp	.LBB8_28
.LBB8_33:                               # %entry_ifend143
                                        #   in Loop: Header=BB8_28 Depth=1
	movl	80(%rsp), %eax
	incl	%eax
	movq	$0, 80(%rsp)
	movq	%rax, 80(%rsp)
.LBB8_28:                               # %for_start_pointzzzzzzzzzzzzzzzzt
                                        # =>This Inner Loop Header: Depth=1
	movl	$0, gSigInt(%rip)
	movl	48(%rsp), %r14d
	movq	40(%rsp), %rcx          # 8-byte Reload
	cmpl	%ecx, %eax
	jge	.LBB8_34
# BB#29:                                # %entry_condend124
                                        #   in Loop: Header=BB8_28 Depth=1
	xorl	%r9d, %r9d
	movq	%r15, %rdi
	movq	%r12, %rsi
	movl	%ebx, %edx
	movq	%rbp, %rcx
	movl	%r14d, %r8d
	callq	get_field_from_object
	cmpl	$0, 8(%rax)
	je	.LBB8_2
# BB#30:                                # %entry_ifend128
                                        #   in Loop: Header=BB8_28 Depth=1
	movq	(%rax), %r13
	movl	80(%rsp), %r14d
	xorl	%r9d, %r9d
	movq	%r15, %rdi
	movq	%r12, %rsi
	movl	%ebx, %edx
	movq	%rbp, %rcx
	movq	16(%rsp), %r8           # 8-byte Reload
	callq	get_field_from_object
	cmpl	$0, 8(%rax)
	je	.LBB8_2
# BB#31:                                # %entry_ifend135
                                        #   in Loop: Header=BB8_28 Depth=1
	movq	(%rax), %r8
	movl	80(%rsp), %r9d
	movq	%r15, %rdi
	movq	%r12, %rsi
	movl	%ebx, %edx
	movq	%rbp, %rcx
	callq	load_element
	cmpl	$0, 8(%rax)
	je	.LBB8_2
# BB#32:                                # %entry_ifend140
                                        #   in Loop: Header=BB8_28 Depth=1
	movq	8(%rsp), %rcx           # 8-byte Reload
	addl	%ecx, %r14d
	movq	(%rax), %rax
	movl	%eax, %eax
	movq	%rax, (%rsp)
	movq	%r15, %rdi
	movq	%r12, %rsi
	movl	%ebx, %edx
	movq	%rbp, %rcx
	movl	%r13d, %r8d
	movl	%r14d, %r9d
	callq	run_store_element
	testl	%eax, %eax
	jne	.LBB8_33
	jmp	.LBB8_2
.LBB8_46:                               # %label_for_endzzzzzzzzzzzzzzzzu
	movq	$0, 96(%rsp)
	xorl	%r15d, %r15d
	jmp	.LBB8_47
.LBB8_51:                               # %entry_ifend216
                                        #   in Loop: Header=BB8_47 Depth=1
	movq	%rbp, %r13
	movq	%rbx, %rbp
	movl	96(%rsp), %r15d
	incl	%r15d
	movq	$0, 96(%rsp)
	movq	%r15, 96(%rsp)
	movl	%r14d, %edx
.LBB8_47:                               # %for_start_pointzzzzzzzzzzzzzzzzv
                                        # =>This Inner Loop Header: Depth=1
	movl	$0, gSigInt(%rip)
	movq	40(%rsp), %rax          # 8-byte Reload
	cmpl	%eax, %r15d
	movq	%rbp, %rcx
	jge	.LBB8_52
# BB#48:                                # %entry_condend200
                                        #   in Loop: Header=BB8_47 Depth=1
	xorl	%r9d, %r9d
	movq	%r13, %rbp
	movq	%rbp, %rdi
	movq	%r12, %rsi
	movq	16(%rsp), %r8           # 8-byte Reload
	movq	%rcx, %rbx
	movl	%edx, %r14d
	callq	get_field_from_object
	cmpl	$0, 8(%rax)
	je	.LBB8_2
# BB#49:                                # %entry_ifend208
                                        #   in Loop: Header=BB8_47 Depth=1
	movq	(%rax), %r8
	movl	96(%rsp), %r9d
	movq	%rbp, %rdi
	movq	%r12, %rsi
	movl	%r14d, %edx
	movq	%rbx, %rcx
	callq	load_element
	cmpl	$0, 8(%rax)
	je	.LBB8_2
# BB#50:                                # %entry_ifend213
                                        #   in Loop: Header=BB8_47 Depth=1
	movq	24(%rsp), %rcx          # 8-byte Reload
	addl	%ecx, %r15d
	movq	(%rax), %rax
	movl	%eax, %eax
	movq	%rax, (%rsp)
	movq	%rbp, %rdi
	movq	%r12, %rsi
	movl	%r14d, %edx
	movq	%rbx, %rcx
	movq	8(%rsp), %r8            # 8-byte Reload
	movl	%r15d, %r9d
	callq	run_store_element
	testl	%eax, %eax
	jne	.LBB8_51
	jmp	.LBB8_2
.LBB8_52:                               # %label_for_endzzzzzzzzzzzzzzzzv
	movq	$0, 96(%rsp)
	movq	24(%rsp), %rax          # 8-byte Reload
	movl	%eax, %r15d
	movq	%r15, 96(%rsp)
	jmp	.LBB8_53
.LBB8_58:                               # %entry_ifend246
                                        #   in Loop: Header=BB8_53 Depth=1
	movl	96(%rsp), %r15d
	incl	%r15d
	movq	$0, 96(%rsp)
	movq	%r15, 96(%rsp)
	movl	%r14d, %edx
	movq	%rbx, %rcx
.LBB8_53:                               # %for_start_pointzzzzzzzzzzzzzzzzw
                                        # =>This Inner Loop Header: Depth=1
	movq	%r13, %rdi
	movl	48(%rsp), %r8d
	movl	$2, %r9d
	movq	%r12, %rsi
	movq	%rdi, %r14
	movq	%rcx, %rbp
	movl	%edx, %ebx
	callq	get_field_from_object
	cmpl	$0, 8(%rax)
	je	.LBB8_2
# BB#54:                                # %entry_ifend226
                                        #   in Loop: Header=BB8_53 Depth=1
	movq	%r14, %rdx
	movq	%rbp, %r10
	movl	%ebx, %ecx
	movq	(%rax), %rax
	movl	$0, gSigInt(%rip)
	movl	96(%rsp), %ebp
	movq	40(%rsp), %rsi          # 8-byte Reload
	addl	%esi, %ebp
	cmpl	%eax, %r15d
	jge	.LBB8_59
# BB#55:                                # %entry_condend230
                                        #   in Loop: Header=BB8_53 Depth=1
	movl	48(%rsp), %r8d
	xorl	%r9d, %r9d
	movq	%rdx, %r13
	movq	%r13, %rdi
	movq	%r12, %rsi
	movl	%ecx, %r14d
	movl	%r14d, %edx
	movq	%r10, %rbx
	movq	%rbx, %rcx
	callq	get_field_from_object
	cmpl	$0, 8(%rax)
	je	.LBB8_2
# BB#56:                                # %entry_ifend238
                                        #   in Loop: Header=BB8_53 Depth=1
	movq	(%rax), %r8
	movl	96(%rsp), %r9d
	movq	%r13, %rdi
	movq	%r12, %rsi
	movl	%r14d, %edx
	movq	%rbx, %rcx
	callq	load_element
	cmpl	$0, 8(%rax)
	je	.LBB8_2
# BB#57:                                # %entry_ifend243
                                        #   in Loop: Header=BB8_53 Depth=1
	movq	(%rax), %rax
	movl	%eax, %eax
	movq	%rax, (%rsp)
	movq	%r13, %rdi
	movq	%r12, %rsi
	movl	%r14d, %edx
	movq	%rbx, %rcx
	movq	8(%rsp), %r8            # 8-byte Reload
	movl	%ebp, %r9d
	callq	run_store_element
	testl	%eax, %eax
	jne	.LBB8_58
	jmp	.LBB8_2
.LBB8_34:                               # %label_for_endzzzzzzzzzzzzzzzzt
	movl	$2, %r9d
	movq	%r15, %rdi
	movq	%r12, %rsi
	movl	%ebx, %edx
	movq	%rbp, %rcx
	movl	%r14d, %r8d
	callq	get_field_from_object
	cmpl	$0, 8(%rax)
	je	.LBB8_2
# BB#35:                                # %entry_ifend152
	movq	(%rax), %r9
	movq	40(%rsp), %rax          # 8-byte Reload
	addl	%eax, %r9d
	movl	$2, (%rsp)
	movq	%r15, %rdi
	movq	%r12, %rsi
	movl	%ebx, %edx
	movq	%rbp, %rcx
	movl	%r14d, %r8d
.LBB8_36:                               # %entry_ifend152
	callq	store_field
	testl	%eax, %eax
	je	.LBB8_2
# BB#37:                                # %label_if_endzzzzzzzzzzzzzzzzr
	movl	$0, gSigInt(%rip)
	movl	48(%rsp), %eax
	movq	%rax, (%r12)
	movl	$1, %eax
	jmp	.LBB8_3
.LBB8_59:                               # %label_for_endzzzzzzzzzzzzzzzzw
	movq	$0, (%rsp)
	movq	%rdx, %r15
	movq	%r15, %rdi
	movq	%r12, %rsi
	movl	%ecx, %r14d
	movl	%r14d, %edx
	movq	%r10, %rbx
	movq	%rbx, %rcx
	movq	8(%rsp), %r8            # 8-byte Reload
	movl	%ebp, %r9d
	callq	run_store_element
	testl	%eax, %eax
	je	.LBB8_2
# BB#60:                                # %entry_ifend257
	movl	$0, gSigInt(%rip)
	movl	48(%rsp), %r8d
	movq	8(%rsp), %rax           # 8-byte Reload
	movl	%eax, %r9d
	movl	$0, (%rsp)
	movq	%r15, %rdi
	movq	%r12, %rsi
	movl	%r14d, %edx
	movq	%rbx, %rcx
	callq	store_field
	testl	%eax, %eax
	je	.LBB8_2
# BB#61:                                # %entry_ifend262
	movl	$0, gSigInt(%rip)
	movl	48(%rsp), %r8d
	movl	80(%rsp), %r9d
	movl	$1, (%rsp)
	movq	%r15, %rdi
	movq	%r12, %rsi
	movl	%r14d, %edx
	movq	%rbx, %rcx
	callq	store_field
	testl	%eax, %eax
	je	.LBB8_2
# BB#62:                                # %entry_ifend267
	movl	$0, gSigInt(%rip)
	movl	48(%rsp), %ebp
	movl	$2, %r9d
	movq	%r15, %rdi
	movq	%r12, %rsi
	movl	%r14d, %edx
	movq	%rbx, %rcx
	movl	%ebp, %r8d
	callq	get_field_from_object
	cmpl	$0, 8(%rax)
	je	.LBB8_2
# BB#63:                                # %entry_ifend272
	movq	(%rax), %r9
	movq	40(%rsp), %rax          # 8-byte Reload
	addl	%eax, %r9d
	movl	$2, (%rsp)
	movq	%r15, %rdi
	movq	%r12, %rsi
	movl	%r14d, %edx
	movq	%rbx, %rcx
	movl	%ebp, %r8d
	jmp	.LBB8_36
.LBB8_2:                                # %then_block
	xorl	%eax, %eax
.LBB8_3:                                # %then_block
	addq	$104, %rsp
	popq	%rbx
	popq	%r12
	popq	%r13
	popq	%r14
	popq	%r15
	popq	%rbp
	retq
.Lfunc_end8:
	.size	"String.insert(int,Self)$$12", .Lfunc_end8-"String.insert(int,Self)$$12"
	.cfi_endproc

	.globl	"String.subString(int,int)$$13"
	.align	16, 0x90
	.type	"String.subString(int,int)$$13",@function
"String.subString(int,int)$$13":        # @"String.subString(int,int)$$13"
	.cfi_startproc
# BB#0:                                 # %entry
	pushq	%rbp
.Ltmp107:
	.cfi_def_cfa_offset 16
	pushq	%r15
.Ltmp108:
	.cfi_def_cfa_offset 24
	pushq	%r14
.Ltmp109:
	.cfi_def_cfa_offset 32
	pushq	%r13
.Ltmp110:
	.cfi_def_cfa_offset 40
	pushq	%r12
.Ltmp111:
	.cfi_def_cfa_offset 48
	pushq	%rbx
.Ltmp112:
	.cfi_def_cfa_offset 56
	subq	$136, %rsp
.Ltmp113:
	.cfi_def_cfa_offset 192
.Ltmp114:
	.cfi_offset %rbx, -56
.Ltmp115:
	.cfi_offset %r12, -48
.Ltmp116:
	.cfi_offset %r13, -40
.Ltmp117:
	.cfi_offset %r14, -32
.Ltmp118:
	.cfi_offset %r15, -24
.Ltmp119:
	.cfi_offset %rbp, -16
	movl	%r9d, %ebx
	movq	%r8, %rdi
	movq	%rcx, %r12
	movq	%rdx, %rcx
	movq	%rsi, 64(%rsp)          # 8-byte Spill
	movq	(%r12), %r13
	movq	$0, 80(%rsp)
	movq	%r13, 80(%rsp)
	movq	8(%r12), %rbp
	movq	$0, 88(%rsp)
	movq	%rbp, 88(%rsp)
	movq	16(%r12), %rax
	movq	$0, 96(%rsp)
	movq	%rax, 96(%rsp)
	movq	$0, 104(%rsp)
	movq	$0, 112(%rsp)
	movl	$0, gSigInt(%rip)
	testl	%ebp, %ebp
	jns	.LBB9_5
# BB#1:                                 # %entry_condend
	movl	$0, gSigInt(%rip)
	movl	$2, %r9d
	movq	%rdi, %r15
	movq	%r12, %rsi
	movl	%ebx, %edx
	movl	%ebx, %r14d
	movq	%rcx, %rbx
	movl	%r13d, %r8d
	callq	get_field_from_object
	cmpl	$0, 8(%rax)
	je	.LBB9_2
# BB#4:                                 # %entry_ifend
	movq	(%rax), %rax
	addl	%eax, %ebp
	movq	$0, 88(%rsp)
	movq	%rbp, 88(%rsp)
	movq	%rbx, %rcx
	movl	%r14d, %ebx
	movq	%r15, %rdi
.LBB9_5:                                # %label_if_endzzzzzzzzzzzzzzzzx
	movl	$0, gSigInt(%rip)
	movq	96(%rsp), %r14
	testl	%r14d, %r14d
	jns	.LBB9_8
# BB#6:                                 # %entry_condend11
	movl	$0, gSigInt(%rip)
	movl	$2, %r9d
	movq	%rdi, 72(%rsp)          # 8-byte Spill
	movq	%r12, %rsi
	movl	%ebx, %edx
	movl	%ebx, %r15d
	movq	%rcx, %rbx
	movl	%r13d, %r8d
	callq	get_field_from_object
	cmpl	$0, 8(%rax)
	je	.LBB9_2
# BB#7:                                 # %entry_ifend16
	movq	(%rax), %rax
	leal	1(%r14,%rax), %r14d
	movq	$0, 96(%rsp)
	movq	%r14, 96(%rsp)
	movq	%rbx, %rcx
	movl	%r15d, %ebx
	movq	72(%rsp), %rdi          # 8-byte Reload
.LBB9_8:                                # %label_if_endzzzzzzzzzzzzzzzzy
	movl	$0, gSigInt(%rip)
	testl	%ebp, %ebp
	jns	.LBB9_10
# BB#9:                                 # %entry_condend24
	movl	$0, gSigInt(%rip)
	movq	$0, 88(%rsp)
	xorl	%ebp, %ebp
.LBB9_10:                               # %label_if_endzzzzzzzzzzzzzzzzz
	movl	$0, gSigInt(%rip)
	movl	$2, %r9d
	movq	%rdi, %r15
	movq	%r12, %rsi
	movl	%ebx, %edx
	movl	%ebx, 72(%rsp)          # 4-byte Spill
	movq	%rcx, %rbx
	movl	%r13d, %r8d
	callq	get_field_from_object
	cmpl	$0, 8(%rax)
	je	.LBB9_2
# BB#11:                                # %entry_ifend30
	movq	(%rax), %rax
	cmpl	%eax, %r14d
	jle	.LBB9_14
# BB#12:                                # %entry_condend33
	movl	$0, gSigInt(%rip)
	movl	$2, %r9d
	movq	%r15, %rdi
	movq	%r12, %rsi
	movl	72(%rsp), %edx          # 4-byte Reload
	movq	%rbx, %rcx
	movl	%r13d, %r8d
	callq	get_field_from_object
	cmpl	$0, 8(%rax)
	je	.LBB9_2
# BB#13:                                # %entry_ifend37
	movq	(%rax), %rax
	movq	$0, 96(%rsp)
	movl	%eax, %r14d
	movq	%r14, 96(%rsp)
.LBB9_14:                               # %label_if_endzzzzzzzzzzzzzzzzzb
	movl	$0, gSigInt(%rip)
	cmpl	%r14d, %ebp
	setge	%al
	movq	$0, 120(%rsp)
	movzbl	%al, %eax
	movq	%rax, 120(%rsp)
	movq	%rbx, %rcx
	movq	%r15, %rdi
	jge	.LBB9_19
# BB#15:                                # %entry_condnotend
	movl	$2, %r9d
	movq	%rdi, %r15
	movq	%r12, %rsi
	movl	72(%rsp), %edx          # 4-byte Reload
	movq	%rcx, %rbx
	movl	%r13d, %r8d
	callq	get_field_from_object
	cmpl	$0, 8(%rax)
	je	.LBB9_2
# BB#16:                                # %entry_ifend46
	movq	(%rax), %rax
	cmpl	%eax, %ebp
	setge	%al
	movq	$0, 128(%rsp)
	movzbl	%al, %eax
	movq	%rax, 128(%rsp)
	jge	.LBB9_18
# BB#17:                                # %entry_condnotend51
	testl	%r14d, %r14d
	sets	%al
	movzbl	%al, %eax
	movq	%rax, 128(%rsp)
.LBB9_18:                               # %label_or_endpointzzzzzzzzzzzzzzzzze
	movq	%rax, 120(%rsp)
	movq	%rbx, %rcx
	movq	%r15, %rdi
.LBB9_19:                               # %label_or_endpointzzzzzzzzzzzzzzzzzd
	movl	$0, gSigInt(%rip)
	testq	%rax, %rax
	je	.LBB9_21
# BB#20:                                # %entry_condend58
	movl	$.Lglobal_string, %edi
	callq	create_string_object
	movl	%eax, %ebp
	movl	%ebp, %edi
	callq	push_jit_object
	movl	%ebp, %eax
.LBB9_37:                               # %entry_ifend183
	movq	%rax, (%r12)
	movl	$1, %eax
	jmp	.LBB9_3
.LBB9_21:                               # %label_if_endzzzzzzzzzzzzzzzzzc
	movq	%rdi, %rbx
	movq	%rcx, 32(%rsp)          # 8-byte Spill
	movq	192(%rsp), %rdi
	movl	$6544, %esi             # imm = 0x1990
	callq	get_class_with_load_and_initialize_in_jit
	testq	%rax, %rax
	je	.LBB9_2
# BB#22:                                # %entry_ifend62
	movq	%rax, %rdi
	callq	create_object
	movl	%eax, %r15d
	movl	%r15d, %edi
	callq	push_jit_object
	movl	$6552, %esi             # imm = 0x1998
	movq	192(%rsp), %rdi
	callq	get_class_with_load_and_initialize_in_jit
	testq	%rax, %rax
	je	.LBB9_2
# BB#23:                                # %entry_ifend68
	movl	%r14d, %ecx
	subl	%ebp, %ecx
	incl	%ecx
	movq	64(%rsp), %rdx          # 8-byte Reload
	movq	$0, (%rdx)
	movq	%r13, (%rdx)
	movq	$0, 8(%rdx)
	movq	%rbp, 8(%rdx)
	movq	$0, 16(%rdx)
	movq	%r14, 16(%rdx)
	movq	$0, 24(%rdx)
	movq	$0, 32(%rdx)
	movq	%rbx, %rbp
	movq	(%rbp), %rdx
	movq	$0, (%rdx)
	movl	%r15d, %esi
	movq	%rsi, (%rdx)
	movq	(%rbp), %rdx
	leaq	8(%rdx), %rsi
	movq	%rsi, (%rbp)
	movq	$0, 8(%rdx)
	movl	%ecx, %ecx
	movq	%rcx, 8(%rdx)
	addq	$8, (%rbp)
	movl	$1, %esi
	movq	%rax, %rdi
	movq	%r12, %rdx
	movl	72(%rsp), %ecx          # 4-byte Reload
	movq	%rbp, %r8
	movq	32(%rsp), %rbx          # 8-byte Reload
	movq	%rbx, %r9
	callq	call_invoke_method
	cmpl	$1, %eax
	jne	.LBB9_24
# BB#25:                                # %entry_ifend85
	movq	(%r12), %r15
	movq	$0, 80(%rsp)
	movq	%r15, 80(%rsp)
	movq	8(%r12), %rax
	movq	%rax, 48(%rsp)          # 8-byte Spill
	movq	$0, 88(%rsp)
	movq	%rax, 88(%rsp)
	movq	16(%r12), %rax
	movq	%rax, 40(%rsp)          # 8-byte Spill
	movq	$0, 96(%rsp)
	movq	%rax, 96(%rsp)
	movq	24(%r12), %rax
	movq	$0, 104(%rsp)
	movq	%rax, 104(%rsp)
	movq	32(%r12), %rax
	movq	$0, 112(%rsp)
	movq	%rax, 112(%rsp)
	movq	(%rbp), %rax
	movq	-8(%rax), %r14
	movq	%r14, 56(%rsp)          # 8-byte Spill
	movl	%r14d, %edi
	callq	push_jit_object
	addq	$-8, (%rbp)
	movq	$0, 104(%rsp)
	movq	%r14, 104(%rsp)
	movl	$0, gSigInt(%rip)
	movq	$0, 112(%rsp)
	xorl	%r14d, %r14d
	jmp	.LBB9_26
.LBB9_31:                               # %entry_ifend156
                                        #   in Loop: Header=BB9_26 Depth=1
	incl	%ebx
	movq	$0, 112(%rsp)
	movq	%rbx, 112(%rsp)
	movq	%rbx, %r14
	movq	%r13, %rbx
.LBB9_26:                               # %for_start_pointzzzzzzzzzzzzzzzzzf
                                        # =>This Inner Loop Header: Depth=1
	movq	40(%rsp), %r13          # 8-byte Reload
	movq	48(%rsp), %rax          # 8-byte Reload
	subl	%eax, %r13d
	movl	$0, gSigInt(%rip)
	xorl	%r9d, %r9d
	movq	%rbp, %rdi
	movq	%r12, %rsi
	movl	72(%rsp), %edx          # 4-byte Reload
	movq	%rbx, %rcx
	movq	56(%rsp), %r8           # 8-byte Reload
	callq	get_field_from_object
	movq	(%rax), %rcx
	movq	%rcx, 24(%rsp)          # 8-byte Spill
	movl	8(%rax), %eax
	cmpl	%r13d, %r14d
	jge	.LBB9_32
# BB#27:                                # %entry_condend105
                                        #   in Loop: Header=BB9_26 Depth=1
	testl	%eax, %eax
	je	.LBB9_2
# BB#28:                                # %entry_ifend109
                                        #   in Loop: Header=BB9_26 Depth=1
	movl	$6628, %esi             # imm = 0x19E4
	movq	192(%rsp), %rdi
	callq	get_class_with_load_and_initialize_in_jit
	movq	%r14, %r9
	testq	%rax, %rax
	je	.LBB9_2
# BB#29:                                # %entry_ifend117
                                        #   in Loop: Header=BB9_26 Depth=1
	movq	48(%rsp), %rcx          # 8-byte Reload
	movq	%rcx, %rsi
	leal	(%rsi,%r9), %ecx
	movq	64(%rsp), %rdx          # 8-byte Reload
	movq	$0, (%rdx)
	movq	%r15, (%rdx)
	movq	$0, 8(%rdx)
	movq	%rsi, 8(%rdx)
	movq	$0, 16(%rdx)
	movq	40(%rsp), %rsi          # 8-byte Reload
	movq	%rsi, 16(%rdx)
	movq	$0, 24(%rdx)
	movq	56(%rsp), %rsi          # 8-byte Reload
	movq	%rsi, 24(%rdx)
	movq	$0, 32(%rdx)
	movq	%r9, 32(%rdx)
	movq	(%rbp), %rdx
	movq	$0, (%rdx)
	movl	%r15d, %esi
	movq	%rsi, (%rdx)
	movq	(%rbp), %rdx
	leaq	8(%rdx), %rsi
	movq	%rsi, (%rbp)
	movq	$0, 8(%rdx)
	movl	%ecx, %ecx
	movq	%rcx, 8(%rdx)
	addq	$8, (%rbp)
	movl	$6, %esi
	movq	%rax, %rdi
	movq	%r12, %rdx
	movl	72(%rsp), %r14d         # 4-byte Reload
	movl	%r14d, %ecx
	movq	%rbp, %r8
	movq	32(%rsp), %rbx          # 8-byte Reload
	movq	%r9, %r15
	movq	%rbx, %r9
	callq	call_invoke_method
	cmpl	$1, %eax
	jne	.LBB9_24
# BB#30:                                # %entry_ifend137
                                        #   in Loop: Header=BB9_26 Depth=1
	movq	(%r12), %rax
	movq	%rax, 16(%rsp)          # 8-byte Spill
	movq	$0, 80(%rsp)
	movq	%rax, 80(%rsp)
	movq	8(%r12), %rax
	movq	%rax, 48(%rsp)          # 8-byte Spill
	movq	$0, 88(%rsp)
	movq	%rax, 88(%rsp)
	movq	16(%r12), %rax
	movq	%rax, 40(%rsp)          # 8-byte Spill
	movq	$0, 96(%rsp)
	movq	%rax, 96(%rsp)
	movq	24(%r12), %rax
	movq	%rax, 56(%rsp)          # 8-byte Spill
	movq	$0, 104(%rsp)
	movq	%rax, 104(%rsp)
	movq	%rbx, %r13
	movq	32(%r12), %rbx
	movq	$0, 112(%rsp)
	movq	%rbx, 112(%rsp)
	movq	(%rbp), %rax
	movq	%r15, 8(%rsp)           # 8-byte Spill
	movq	-8(%rax), %r15
	movl	%r15d, %edi
	callq	push_jit_object
	addq	$-8, (%rbp)
	movq	%r15, (%rsp)
	movq	16(%rsp), %r15          # 8-byte Reload
	movq	%rbp, %rdi
	movq	%r12, %rsi
	movl	%r14d, %edx
	movq	%r13, %rcx
	movq	24(%rsp), %r8           # 8-byte Reload
	movq	8(%rsp), %r9            # 8-byte Reload
	callq	run_store_element
	testl	%eax, %eax
	jne	.LBB9_31
	jmp	.LBB9_2
.LBB9_24:                               # %then_block84
	movq	%rbx, %rdi
	callq	get_try_catch_label_name
.LBB9_2:                                # %then_block
	xorl	%eax, %eax
.LBB9_3:                                # %then_block
	addq	$136, %rsp
	popq	%rbx
	popq	%r12
	popq	%r13
	popq	%r14
	popq	%r15
	popq	%rbp
	retq
.LBB9_32:                               # %label_for_endzzzzzzzzzzzzzzzzzf
	testl	%eax, %eax
	je	.LBB9_2
# BB#33:                                # %entry_ifend164
	movq	$0, (%rsp)
	movq	%rbp, %rdi
	movq	%r12, %rsi
	movl	72(%rsp), %edx          # 4-byte Reload
	movq	32(%rsp), %rcx          # 8-byte Reload
	movq	24(%rsp), %r8           # 8-byte Reload
	movl	%r14d, %r9d
	callq	run_store_element
	testl	%eax, %eax
	je	.LBB9_2
# BB#34:                                # %entry_ifend168
	movl	$0, gSigInt(%rip)
	movl	%r13d, %r9d
	movl	$2, (%rsp)
	movq	%rbp, %rdi
	movq	%r12, %rsi
	movl	72(%rsp), %edx          # 4-byte Reload
	movq	32(%rsp), %rcx          # 8-byte Reload
	movq	56(%rsp), %r8           # 8-byte Reload
	callq	store_field
	testl	%eax, %eax
	je	.LBB9_2
# BB#35:                                # %entry_ifend175
	movl	$0, gSigInt(%rip)
	incl	%r13d
	movl	$1, (%rsp)
	movq	%rbp, %rdi
	movq	%r12, %rsi
	movl	72(%rsp), %edx          # 4-byte Reload
	movq	32(%rsp), %rcx          # 8-byte Reload
	movq	56(%rsp), %r8           # 8-byte Reload
	movq	%r13, %r9
	callq	store_field
	testl	%eax, %eax
	je	.LBB9_2
# BB#36:                                # %entry_ifend183
	movl	$0, gSigInt(%rip)
	movq	56(%rsp), %rax          # 8-byte Reload
	movl	%eax, %eax
	jmp	.LBB9_37
.Lfunc_end9:
	.size	"String.subString(int,int)$$13", .Lfunc_end9-"String.subString(int,int)$$13"
	.cfi_endproc

	.globl	"String.equals(Self)$$14"
	.align	16, 0x90
	.type	"String.equals(Self)$$14",@function
"String.equals(Self)$$14":              # @"String.equals(Self)$$14"
	.cfi_startproc
# BB#0:                                 # %entry
	pushq	%rbp
.Ltmp120:
	.cfi_def_cfa_offset 16
	pushq	%r15
.Ltmp121:
	.cfi_def_cfa_offset 24
	pushq	%r14
.Ltmp122:
	.cfi_def_cfa_offset 32
	pushq	%r13
.Ltmp123:
	.cfi_def_cfa_offset 40
	pushq	%r12
.Ltmp124:
	.cfi_def_cfa_offset 48
	pushq	%rbx
.Ltmp125:
	.cfi_def_cfa_offset 56
	subq	$56, %rsp
.Ltmp126:
	.cfi_def_cfa_offset 112
.Ltmp127:
	.cfi_offset %rbx, -56
.Ltmp128:
	.cfi_offset %r12, -48
.Ltmp129:
	.cfi_offset %r13, -40
.Ltmp130:
	.cfi_offset %r14, -32
.Ltmp131:
	.cfi_offset %r15, -24
.Ltmp132:
	.cfi_offset %rbp, -16
	movl	%r9d, %eax
	movl	%eax, 20(%rsp)          # 4-byte Spill
	movq	%r8, %r15
	movq	%rcx, %r13
	movq	%rdx, %r12
	movq	%rsi, %rbp
	movq	(%r13), %rbx
	movq	$0, 32(%rsp)
	movq	%rbx, 32(%rsp)
	movq	8(%r13), %r14
	movq	$0, 40(%rsp)
	movq	%r14, 40(%rsp)
	movq	$0, 48(%rsp)
	movl	$0, gSigInt(%rip)
	movl	$2, %r9d
	movq	%r15, %rdi
	movq	%r13, %rsi
	movl	%eax, %edx
	movq	%r12, %rcx
	movl	%ebx, %r8d
	callq	get_field_from_object
	cmpl	$0, 8(%rax)
	je	.LBB10_1
# BB#3:                                 # %entry_ifend
	movq	112(%rsp), %rdi
	movq	(%rax), %rax
	movq	%rax, 24(%rsp)          # 8-byte Spill
	movl	$6704, %esi             # imm = 0x1A30
	callq	get_class_with_load_and_initialize_in_jit
	testq	%rax, %rax
	je	.LBB10_1
# BB#4:                                 # %entry_ifend5
	movq	$0, (%rbp)
	movq	%rbx, (%rbp)
	movq	$0, 8(%rbp)
	movq	%r14, 8(%rbp)
	movq	$0, 16(%rbp)
	movq	(%r15), %rcx
	movq	$0, (%rcx)
	movl	%r14d, %edx
	movq	%rdx, (%rcx)
	addq	$8, (%r15)
	movl	$7, %esi
	movq	%rax, %rdi
	movq	%r13, %rdx
	movl	20(%rsp), %ecx          # 4-byte Reload
	movq	%r15, %r8
	movq	%r12, %r9
	callq	call_invoke_method
	cmpl	$1, %eax
	movq	%r15, %r14
	je	.LBB10_6
# BB#5:                                 # %then_block14
	movq	%r12, %rdi
	callq	get_try_catch_label_name
.LBB10_1:                               # %then_block
	xorl	%eax, %eax
.LBB10_2:                               # %then_block
	addq	$56, %rsp
	popq	%rbx
	popq	%r12
	popq	%r13
	popq	%r14
	popq	%r15
	popq	%rbp
	retq
.LBB10_6:                               # %entry_ifend15
	movq	%r12, %rbp
	movq	(%r13), %r12
	movq	%r12, 8(%rsp)           # 8-byte Spill
	movq	$0, 32(%rsp)
	movq	%r12, 32(%rsp)
	movq	8(%r13), %r15
	movq	$0, 40(%rsp)
	movq	%r15, 40(%rsp)
	movq	16(%r13), %rax
	movq	$0, 48(%rsp)
	movq	%rax, 48(%rsp)
	movq	(%r14), %rax
	movl	-8(%rax), %ebx
	movl	%ebx, %edi
	callq	push_jit_object
	addq	$-8, (%r14)
	movl	$0, gSigInt(%rip)
	movq	24(%rsp), %rax          # 8-byte Reload
	cmpl	%ebx, %eax
	jne	.LBB10_16
# BB#7:                                 # %entry_condend
	movq	%r15, (%rsp)            # 8-byte Spill
	movq	$0, 48(%rsp)
	xorl	%eax, %eax
	movq	%rax, 24(%rsp)          # 8-byte Spill
	movq	%rbp, %rbx
	movl	20(%rsp), %ebp          # 4-byte Reload
	jmp	.LBB10_8
	.align	16, 0x90
.LBB10_19:                              # %label_if_endzzzzzzzzzzzzzzzzzi
                                        #   in Loop: Header=BB10_8 Depth=1
	movq	24(%rsp), %rax          # 8-byte Reload
	incl	%eax
	movq	%rax, 24(%rsp)          # 8-byte Spill
	movq	$0, 48(%rsp)
	movq	%rax, 48(%rsp)
	movl	%r14d, %ebp
	movq	%rcx, %rbx
	movq	%r15, %r14
	movq	8(%rsp), %r12           # 8-byte Reload
.LBB10_8:                               # %for_start_pointzzzzzzzzzzzzzzzzzh
                                        # =>This Inner Loop Header: Depth=1
	movl	$2, %r9d
	movq	%r14, %rdi
	movq	%r13, %rsi
	movl	%ebp, %edx
	movq	%rbx, %rcx
	movl	%r12d, %r8d
	callq	get_field_from_object
	cmpl	$0, 8(%rax)
	je	.LBB10_1
# BB#9:                                 # %entry_ifend28
                                        #   in Loop: Header=BB10_8 Depth=1
	movq	%r14, %r15
	movl	%ebp, %r14d
	movq	(%rax), %rax
	movl	$0, gSigInt(%rip)
	movq	24(%rsp), %rsi          # 8-byte Reload
	cmpl	%eax, %esi
	jge	.LBB10_18
# BB#10:                                # %entry_condend31
                                        #   in Loop: Header=BB10_8 Depth=1
	xorl	%r9d, %r9d
	movq	%r15, %rdi
	movq	%r13, %rsi
	movl	%r14d, %edx
	movq	%rbx, %rbp
	movq	%rbp, %rcx
	movq	8(%rsp), %r8            # 8-byte Reload
	callq	get_field_from_object
	cmpl	$0, 8(%rax)
	je	.LBB10_1
# BB#11:                                # %entry_ifend35
                                        #   in Loop: Header=BB10_8 Depth=1
	movq	(%rax), %r8
	movq	%r15, %rdi
	movq	%r13, %rsi
	movl	%r14d, %edx
	movq	%rbp, %rcx
	movq	24(%rsp), %r9           # 8-byte Reload
	callq	load_element
	cmpl	$0, 8(%rax)
	je	.LBB10_1
# BB#12:                                # %entry_ifend39
                                        #   in Loop: Header=BB10_8 Depth=1
	movq	(%rax), %r12
	xorl	%r9d, %r9d
	movq	%r15, %rdi
	movq	%r13, %rsi
	movl	%r14d, %edx
	movq	%rbp, %rcx
	movq	(%rsp), %r8             # 8-byte Reload
	callq	get_field_from_object
	cmpl	$0, 8(%rax)
	je	.LBB10_1
# BB#13:                                # %entry_ifend43
                                        #   in Loop: Header=BB10_8 Depth=1
	movq	(%rax), %r8
	movq	%r15, %rdi
	movq	%r13, %rsi
	movl	%r14d, %edx
	movq	%rbp, %rcx
	movq	24(%rsp), %r9           # 8-byte Reload
	callq	load_element
	cmpl	$0, 8(%rax)
	je	.LBB10_1
# BB#14:                                # %entry_ifend48
                                        #   in Loop: Header=BB10_8 Depth=1
	movq	%rbp, %rcx
	movq	(%rax), %rax
	cmpl	%eax, %r12d
	je	.LBB10_19
# BB#15:                                # %entry_condend51
	movl	$0, gSigInt(%rip)
.LBB10_16:                              # %label_elsezzzzzzzzzzzzzzzzzg
	movq	$0, (%r13)
	movl	$1, %eax
	jmp	.LBB10_2
.LBB10_18:                              # %label_for_endzzzzzzzzzzzzzzzzzh
	movq	$1, (%r13)
	movl	$1, %eax
	jmp	.LBB10_2
.Lfunc_end10:
	.size	"String.equals(Self)$$14", .Lfunc_end10-"String.equals(Self)$$14"
	.cfi_endproc

	.globl	"String.getHashKey()$$15"
	.align	16, 0x90
	.type	"String.getHashKey()$$15",@function
"String.getHashKey()$$15":              # @"String.getHashKey()$$15"
	.cfi_startproc
# BB#0:                                 # %entry
	pushq	%rbp
.Ltmp133:
	.cfi_def_cfa_offset 16
	pushq	%r15
.Ltmp134:
	.cfi_def_cfa_offset 24
	pushq	%r14
.Ltmp135:
	.cfi_def_cfa_offset 32
	pushq	%r13
.Ltmp136:
	.cfi_def_cfa_offset 40
	pushq	%r12
.Ltmp137:
	.cfi_def_cfa_offset 48
	pushq	%rbx
.Ltmp138:
	.cfi_def_cfa_offset 56
	subq	$40, %rsp
.Ltmp139:
	.cfi_def_cfa_offset 96
.Ltmp140:
	.cfi_offset %rbx, -56
.Ltmp141:
	.cfi_offset %r12, -48
.Ltmp142:
	.cfi_offset %r13, -40
.Ltmp143:
	.cfi_offset %r14, -32
.Ltmp144:
	.cfi_offset %r15, -24
.Ltmp145:
	.cfi_offset %rbp, -16
	movl	%r9d, %r14d
	movq	%r8, %r15
	movq	%rcx, %rbx
	movq	%rdx, %r13
	movq	(%rbx), %rax
	movq	%rax, 8(%rsp)           # 8-byte Spill
	movq	$0, 16(%rsp)
	movq	%rax, 16(%rsp)
	movq	$0, 24(%rsp)
	movq	$0, 32(%rsp)
	movl	$0, gSigInt(%rip)
	movq	$0, 24(%rsp)
	movl	$0, gSigInt(%rip)
	movq	$0, 32(%rsp)
	movq	$1, 32(%rsp)
	movl	$1, %ebp
	xorl	%r12d, %r12d
	jmp	.LBB11_1
	.align	16, 0x90
.LBB11_7:                               # %entry_ifend10
                                        #   in Loop: Header=BB11_1 Depth=1
	movq	(%rax), %rax
	addl	%eax, %r12d
	movq	$0, 24(%rsp)
	movq	%r12, 24(%rsp)
	incl	%ebp
	movq	$0, 32(%rsp)
	movq	%rbp, 32(%rsp)
.LBB11_1:                               # %for_start_pointzzzzzzzzzzzzzzzzzj
                                        # =>This Inner Loop Header: Depth=1
	movl	$2, %r9d
	movq	%r15, %rdi
	movq	%rbx, %rsi
	movl	%r14d, %edx
	movq	%r13, %rcx
	movq	8(%rsp), %r8            # 8-byte Reload
	callq	get_field_from_object
	cmpl	$0, 8(%rax)
	je	.LBB11_2
# BB#4:                                 # %entry_ifend
                                        #   in Loop: Header=BB11_1 Depth=1
	movq	(%rax), %rax
	movl	$0, gSigInt(%rip)
	cmpl	%eax, %ebp
	jge	.LBB11_8
# BB#5:                                 # %entry_condend
                                        #   in Loop: Header=BB11_1 Depth=1
	xorl	%r9d, %r9d
	movq	%r15, %rdi
	movq	%rbx, %rsi
	movl	%r14d, %edx
	movq	%r13, %rcx
	movq	8(%rsp), %r8            # 8-byte Reload
	callq	get_field_from_object
	cmpl	$0, 8(%rax)
	je	.LBB11_2
# BB#6:                                 # %entry_ifend6
                                        #   in Loop: Header=BB11_1 Depth=1
	movq	(%rax), %r8
	movq	%r15, %rdi
	movq	%rbx, %rsi
	movl	%r14d, %edx
	movq	%r13, %rcx
	movl	%ebp, %r9d
	callq	load_element
	cmpl	$0, 8(%rax)
	jne	.LBB11_7
.LBB11_2:                               # %then_block
	xorl	%eax, %eax
	jmp	.LBB11_3
.LBB11_8:                               # %label_for_endzzzzzzzzzzzzzzzzzj
	movl	%r12d, %eax
	movq	%rax, (%rbx)
	movl	$1, %eax
.LBB11_3:                               # %then_block
	addq	$40, %rsp
	popq	%rbx
	popq	%r12
	popq	%r13
	popq	%r14
	popq	%r15
	popq	%rbp
	retq
.Lfunc_end11:
	.size	"String.getHashKey()$$15", .Lfunc_end11-"String.getHashKey()$$15"
	.cfi_endproc

	.globl	"String.toString()$$16"
	.align	16, 0x90
	.type	"String.toString()$$16",@function
"String.toString()$$16":                # @"String.toString()$$16"
	.cfi_startproc
# BB#0:                                 # %entry
	movq	(%rcx), %rax
	movq	$0, -8(%rsp)
	movq	%rax, -8(%rsp)
	movl	$0, gSigInt(%rip)
	movl	%eax, %eax
	movq	%rax, (%rcx)
	movl	$1, %eax
	retq
.Lfunc_end12:
	.size	"String.toString()$$16", .Lfunc_end12-"String.toString()$$16"
	.cfi_endproc

	.globl	"String.printf(Self)$$17"
	.align	16, 0x90
	.type	"String.printf(Self)$$17",@function
"String.printf(Self)$$17":              # @"String.printf(Self)$$17"
	.cfi_startproc
# BB#0:                                 # %entry
	pushq	%rbp
.Ltmp146:
	.cfi_def_cfa_offset 16
	pushq	%r15
.Ltmp147:
	.cfi_def_cfa_offset 24
	pushq	%r14
.Ltmp148:
	.cfi_def_cfa_offset 32
	pushq	%r13
.Ltmp149:
	.cfi_def_cfa_offset 40
	pushq	%r12
.Ltmp150:
	.cfi_def_cfa_offset 48
	pushq	%rbx
.Ltmp151:
	.cfi_def_cfa_offset 56
	subq	$56, %rsp
.Ltmp152:
	.cfi_def_cfa_offset 112
.Ltmp153:
	.cfi_offset %rbx, -56
.Ltmp154:
	.cfi_offset %r12, -48
.Ltmp155:
	.cfi_offset %r13, -40
.Ltmp156:
	.cfi_offset %r14, -32
.Ltmp157:
	.cfi_offset %r15, -24
.Ltmp158:
	.cfi_offset %rbp, -16
	movl	%r9d, %ebx
	movl	%ebx, 28(%rsp)          # 4-byte Spill
	movq	%r8, %r13
	movq	%rcx, %r14
	movq	%rdx, %rbp
	movq	%rbp, 32(%rsp)          # 8-byte Spill
	movq	%rsi, 16(%rsp)          # 8-byte Spill
	movq	112(%rsp), %rdx
	movq	(%r14), %r15
	movq	$0, 40(%rsp)
	movq	%r15, 40(%rsp)
	movq	8(%r14), %r12
	movq	$0, 48(%rsp)
	movq	%r12, 48(%rsp)
	movl	$0, gSigInt(%rip)
	movq	(%r13), %rax
	movq	$0, (%rax)
	movl	%r15d, %ecx
	movq	%rcx, (%rax)
	addq	$8, (%r13)
	movq	%rdx, (%rsp)
	movl	$1, %r8d
	movl	$7240, %r9d             # imm = 0x1C48
	movq	%r13, %rdi
	movq	%r14, %rsi
	movl	%ebx, %edx
	movq	%rbp, %rcx
	callq	run_create_carray
	cmpl	$0, 8(%rax)
	je	.LBB13_1
# BB#3:                                 # %entry_ifend
	movq	(%rax), %rbp
	movl	%ebp, %edi
	callq	push_jit_object
	movl	$7248, %esi             # imm = 0x1C50
	movq	112(%rsp), %rdi
	callq	get_class_with_load_and_initialize_in_jit
	testq	%rax, %rax
	je	.LBB13_1
# BB#4:                                 # %entry_ifend6
	movq	16(%rsp), %rcx          # 8-byte Reload
	movq	$0, (%rcx)
	movq	%r15, (%rcx)
	movq	$0, 8(%rcx)
	movq	%r12, 8(%rcx)
	movq	(%r13), %rcx
	movq	$0, (%rcx)
	movl	%r12d, %edx
	movq	%rdx, (%rcx)
	movq	(%r13), %rcx
	leaq	8(%rcx), %rdx
	movq	%rdx, (%r13)
	movq	$0, 8(%rcx)
	movq	%rbp, 8(%rcx)
	addq	$8, (%r13)
	movl	$5, %esi
	movq	%rax, %rdi
	movq	%r14, %rdx
	movl	28(%rsp), %ecx          # 4-byte Reload
	movq	%r13, %r8
	movq	32(%rsp), %rbp          # 8-byte Reload
	movq	%rbp, %r9
	callq	call_invoke_method
	cmpl	$1, %eax
	je	.LBB13_6
# BB#5:                                 # %then_block18
	movq	%rbp, %rdi
	callq	get_try_catch_label_name
.LBB13_1:                               # %then_block
	xorl	%eax, %eax
	jmp	.LBB13_2
.LBB13_6:                               # %entry_ifend19
	movq	(%r14), %rax
	movq	$0, 40(%rsp)
	movq	%rax, 40(%rsp)
	movq	8(%r14), %rax
	movq	$0, 48(%rsp)
	movq	%rax, 48(%rsp)
	movq	(%r13), %rax
	movl	-8(%rax), %edi
	callq	push_jit_object
	addq	$-8, (%r13)
	movq	$0, (%r14)
	movl	$1, %eax
.LBB13_2:                               # %then_block
	addq	$56, %rsp
	popq	%rbx
	popq	%r12
	popq	%r13
	popq	%r14
	popq	%r15
	popq	%rbp
	retq
.Lfunc_end13:
	.size	"String.printf(Self)$$17", .Lfunc_end13-"String.printf(Self)$$17"
	.cfi_endproc

	.globl	"String.print()$$18"
	.align	16, 0x90
	.type	"String.print()$$18",@function
"String.print()$$18":                   # @"String.print()$$18"
	.cfi_startproc
# BB#0:                                 # %entry
	pushq	%rbp
.Ltmp159:
	.cfi_def_cfa_offset 16
	pushq	%r15
.Ltmp160:
	.cfi_def_cfa_offset 24
	pushq	%r14
.Ltmp161:
	.cfi_def_cfa_offset 32
	pushq	%r13
.Ltmp162:
	.cfi_def_cfa_offset 40
	pushq	%r12
.Ltmp163:
	.cfi_def_cfa_offset 48
	pushq	%rbx
.Ltmp164:
	.cfi_def_cfa_offset 56
	pushq	%rax
.Ltmp165:
	.cfi_def_cfa_offset 64
.Ltmp166:
	.cfi_offset %rbx, -56
.Ltmp167:
	.cfi_offset %r12, -48
.Ltmp168:
	.cfi_offset %r13, -40
.Ltmp169:
	.cfi_offset %r14, -32
.Ltmp170:
	.cfi_offset %r15, -24
.Ltmp171:
	.cfi_offset %rbp, -16
	movl	%r9d, %r12d
	movq	%r8, %r13
	movq	%rcx, %r14
	movq	%rdx, %r15
	movq	%rsi, %rbp
	movq	64(%rsp), %rdi
	movq	(%r14), %rbx
	movq	$0, (%rsp)
	movq	%rbx, (%rsp)
	movl	$0, gSigInt(%rip)
	movl	$7256, %esi             # imm = 0x1C58
	callq	get_class_with_load_and_initialize_in_jit
	testq	%rax, %rax
	je	.LBB14_1
# BB#3:                                 # %entry_ifend
	movq	$0, (%rbp)
	movq	%rbx, (%rbp)
	movq	(%r13), %rcx
	movq	$0, (%rcx)
	movl	%ebx, %edx
	movq	%rdx, (%rcx)
	addq	$8, (%r13)
	movl	$1, %esi
	movq	%rax, %rdi
	movq	%r14, %rdx
	movl	%r12d, %ecx
	movq	%r13, %r8
	movq	%r15, %r9
	callq	call_invoke_method
	cmpl	$1, %eax
	je	.LBB14_5
# BB#4:                                 # %then_block5
	movq	%r15, %rdi
	callq	get_try_catch_label_name
.LBB14_1:                               # %then_block
	xorl	%eax, %eax
	jmp	.LBB14_2
.LBB14_5:                               # %entry_ifend6
	movq	(%r14), %rax
	movq	$0, (%rsp)
	movq	%rax, (%rsp)
	movq	(%r13), %rax
	movl	-8(%rax), %edi
	callq	push_jit_object
	addq	$-8, (%r13)
	movq	$0, (%r14)
	movl	$1, %eax
.LBB14_2:                               # %then_block
	addq	$8, %rsp
	popq	%rbx
	popq	%r12
	popq	%r13
	popq	%r14
	popq	%r15
	popq	%rbp
	retq
.Lfunc_end14:
	.size	"String.print()$$18", .Lfunc_end14-"String.print()$$18"
	.cfi_endproc

	.globl	"String.println()$$19"
	.align	16, 0x90
	.type	"String.println()$$19",@function
"String.println()$$19":                 # @"String.println()$$19"
	.cfi_startproc
# BB#0:                                 # %entry
	pushq	%rbp
.Ltmp172:
	.cfi_def_cfa_offset 16
	pushq	%r15
.Ltmp173:
	.cfi_def_cfa_offset 24
	pushq	%r14
.Ltmp174:
	.cfi_def_cfa_offset 32
	pushq	%r13
.Ltmp175:
	.cfi_def_cfa_offset 40
	pushq	%r12
.Ltmp176:
	.cfi_def_cfa_offset 48
	pushq	%rbx
.Ltmp177:
	.cfi_def_cfa_offset 56
	pushq	%rax
.Ltmp178:
	.cfi_def_cfa_offset 64
.Ltmp179:
	.cfi_offset %rbx, -56
.Ltmp180:
	.cfi_offset %r12, -48
.Ltmp181:
	.cfi_offset %r13, -40
.Ltmp182:
	.cfi_offset %r14, -32
.Ltmp183:
	.cfi_offset %r15, -24
.Ltmp184:
	.cfi_offset %rbp, -16
	movl	%r9d, %r12d
	movq	%r8, %r13
	movq	%rcx, %r14
	movq	%rdx, %r15
	movq	%rsi, %rbp
	movq	64(%rsp), %rdi
	movq	(%r14), %rbx
	movq	$0, (%rsp)
	movq	%rbx, (%rsp)
	movl	$0, gSigInt(%rip)
	movl	$7264, %esi             # imm = 0x1C60
	callq	get_class_with_load_and_initialize_in_jit
	testq	%rax, %rax
	je	.LBB15_1
# BB#3:                                 # %entry_ifend
	movq	$0, (%rbp)
	movq	%rbx, (%rbp)
	movq	(%r13), %rcx
	movq	$0, (%rcx)
	movl	%ebx, %edx
	movq	%rdx, (%rcx)
	addq	$8, (%r13)
	movl	$3, %esi
	movq	%rax, %rdi
	movq	%r14, %rdx
	movl	%r12d, %ecx
	movq	%r13, %r8
	movq	%r15, %r9
	callq	call_invoke_method
	cmpl	$1, %eax
	je	.LBB15_5
# BB#4:                                 # %then_block5
	movq	%r15, %rdi
	callq	get_try_catch_label_name
.LBB15_1:                               # %then_block
	xorl	%eax, %eax
	jmp	.LBB15_2
.LBB15_5:                               # %entry_ifend6
	movq	(%r14), %rax
	movq	$0, (%rsp)
	movq	%rax, (%rsp)
	movq	(%r13), %rax
	movl	-8(%rax), %edi
	callq	push_jit_object
	addq	$-8, (%r13)
	movq	$0, (%r14)
	movl	$1, %eax
.LBB15_2:                               # %then_block
	addq	$8, %rsp
	popq	%rbx
	popq	%r12
	popq	%r13
	popq	%r14
	popq	%r15
	popq	%rbp
	retq
.Lfunc_end15:
	.size	"String.println()$$19", .Lfunc_end15-"String.println()$$19"
	.cfi_endproc

	.globl	"String.match(regex)$$20"
	.align	16, 0x90
	.type	"String.match(regex)$$20",@function
"String.match(regex)$$20":              # @"String.match(regex)$$20"
	.cfi_startproc
# BB#0:                                 # %entry
	pushq	%rbp
.Ltmp185:
	.cfi_def_cfa_offset 16
	pushq	%r15
.Ltmp186:
	.cfi_def_cfa_offset 24
	pushq	%r14
.Ltmp187:
	.cfi_def_cfa_offset 32
	pushq	%r13
.Ltmp188:
	.cfi_def_cfa_offset 40
	pushq	%r12
.Ltmp189:
	.cfi_def_cfa_offset 48
	pushq	%rbx
.Ltmp190:
	.cfi_def_cfa_offset 56
	subq	$120, %rsp
.Ltmp191:
	.cfi_def_cfa_offset 176
.Ltmp192:
	.cfi_offset %rbx, -56
.Ltmp193:
	.cfi_offset %r12, -48
.Ltmp194:
	.cfi_offset %r13, -40
.Ltmp195:
	.cfi_offset %r14, -32
.Ltmp196:
	.cfi_offset %r15, -24
.Ltmp197:
	.cfi_offset %rbp, -16
	movl	%r9d, 52(%rsp)          # 4-byte Spill
	movq	%r8, 40(%rsp)           # 8-byte Spill
	movq	%rcx, %r15
	movq	%rdx, 56(%rsp)          # 8-byte Spill
	movq	%rsi, %r13
	movq	176(%rsp), %r14
	movq	(%r15), %rbp
	movq	$0, 64(%rsp)
	movq	%rbp, 64(%rsp)
	movq	8(%r15), %rbx
	movq	$0, 72(%rsp)
	movq	%rbx, 72(%rsp)
	movq	$0, 80(%rsp)
	movq	$0, 88(%rsp)
	movq	$0, 96(%rsp)
	movq	$0, 104(%rsp)
	movq	$0, 112(%rsp)
	movl	$0, gSigInt(%rip)
	movq	$0, 80(%rsp)
	movq	$16, 80(%rsp)
	movl	$0, gSigInt(%rip)
	movl	$7272, %esi             # imm = 0x1C68
	movq	%r14, %rdi
	callq	get_class_with_load_and_initialize_in_jit
	testq	%rax, %rax
	je	.LBB16_1
# BB#3:                                 # %entry_ifend
	movq	%rax, %rdi
	callq	create_object
	movl	%eax, %r12d
	movl	%r12d, %edi
	callq	push_jit_object
	movl	$7284, %esi             # imm = 0x1C74
	movq	%r14, %rdi
	callq	get_class_with_load_and_initialize_in_jit
	testq	%rax, %rax
	je	.LBB16_1
# BB#4:                                 # %entry_ifend4
	movq	$0, (%r13)
	movq	%rbp, (%r13)
	movq	$0, 8(%r13)
	movq	%rbx, 8(%r13)
	movq	$0, 16(%r13)
	movq	$16, 16(%r13)
	movq	$0, 24(%r13)
	movq	$0, 32(%r13)
	movq	$0, 40(%r13)
	movq	$0, 48(%r13)
	movq	40(%rsp), %rbp          # 8-byte Reload
	movq	(%rbp), %rcx
	movq	$0, (%rcx)
	movl	%r12d, %edx
	movq	%rdx, (%rcx)
	movq	(%rbp), %rcx
	leaq	8(%rcx), %rdx
	movq	%rdx, (%rbp)
	movq	$0, 8(%rcx)
	movq	$16, 8(%rcx)
	addq	$8, (%rbp)
	xorl	%esi, %esi
	movq	%rax, %rdi
	movq	%r15, %rdx
	movl	52(%rsp), %ecx          # 4-byte Reload
	movq	%rbp, %r8
	movq	56(%rsp), %rbx          # 8-byte Reload
	movq	%rbx, %r9
	callq	call_invoke_method
	cmpl	$1, %eax
	jne	.LBB16_5
# BB#6:                                 # %entry_ifend25
	movq	(%r15), %rax
	movq	%rax, 32(%rsp)          # 8-byte Spill
	movq	$0, 64(%rsp)
	movq	%rax, 64(%rsp)
	movq	8(%r15), %rax
	movq	%rax, 24(%rsp)          # 8-byte Spill
	movq	$0, 72(%rsp)
	movq	%rax, 72(%rsp)
	movq	16(%r15), %rax
	movq	%rax, 16(%rsp)          # 8-byte Spill
	movq	$0, 80(%rsp)
	movq	%rax, 80(%rsp)
	movq	24(%r15), %rax
	movq	$0, 88(%rsp)
	movq	%rax, 88(%rsp)
	movq	32(%r15), %rax
	movq	%rax, 8(%rsp)           # 8-byte Spill
	movq	$0, 96(%rsp)
	movq	%rax, 96(%rsp)
	movq	40(%r15), %r14
	movq	$0, 104(%rsp)
	movq	%r14, 104(%rsp)
	movq	48(%r15), %rbx
	movq	$0, 112(%rsp)
	movq	%rbx, 112(%rsp)
	movq	(%rbp), %rax
	movq	-8(%rax), %r12
	movl	%r12d, %edi
	callq	push_jit_object
	addq	$-8, (%rbp)
	movq	$0, 88(%rsp)
	movq	%r12, 88(%rsp)
	movl	$0, gSigInt(%rip)
	movl	$7296, %esi             # imm = 0x1C80
	movq	176(%rsp), %rdi
	callq	get_class_with_load_and_initialize_in_jit
	testq	%rax, %rax
	je	.LBB16_1
# BB#7:                                 # %entry_ifend45
	movq	$0, (%r13)
	movq	32(%rsp), %rdx          # 8-byte Reload
	movq	%rdx, (%r13)
	movq	$0, 8(%r13)
	movq	24(%rsp), %rcx          # 8-byte Reload
	movq	%rcx, 8(%r13)
	movq	$0, 16(%r13)
	movq	16(%rsp), %rcx          # 8-byte Reload
	movq	%rcx, 16(%r13)
	movq	$0, 24(%r13)
	movq	%r12, 24(%r13)
	movq	$0, 32(%r13)
	movq	8(%rsp), %rcx           # 8-byte Reload
	movq	%rcx, 32(%r13)
	movq	$0, 40(%r13)
	movq	%r14, 40(%r13)
	movq	$0, 48(%r13)
	movq	%rbx, 48(%r13)
	movq	(%rbp), %rcx
	movq	$0, (%rcx)
	movl	%edx, %edx
	movq	%rdx, (%rcx)
	addq	$8, (%rbp)
	movl	$48, %esi
	movq	%rax, %rdi
	movq	%r15, %rdx
	movl	52(%rsp), %ecx          # 4-byte Reload
	movq	%rbp, %r8
	movq	56(%rsp), %rbx          # 8-byte Reload
	movq	%rbx, %r9
	callq	call_invoke_method
	cmpl	$1, %eax
	jne	.LBB16_5
# BB#8:                                 # %entry_ifend66
	movq	(%r15), %rax
	movq	%rax, 16(%rsp)          # 8-byte Spill
	movq	$0, 64(%rsp)
	movq	%rax, 64(%rsp)
	movq	8(%r15), %r12
	movq	$0, 72(%rsp)
	movq	%r12, 72(%rsp)
	movq	16(%r15), %rax
	movq	%rax, 24(%rsp)          # 8-byte Spill
	movq	$0, 80(%rsp)
	movq	%rax, 80(%rsp)
	movq	24(%r15), %rax
	movq	%rax, 32(%rsp)          # 8-byte Spill
	movq	$0, 88(%rsp)
	movq	%rax, 88(%rsp)
	movq	32(%r15), %rax
	movq	$0, 96(%rsp)
	movq	%rax, 96(%rsp)
	movq	40(%r15), %rax
	movq	$0, 104(%rsp)
	movq	%rax, 104(%rsp)
	movq	48(%r15), %r14
	movq	$0, 112(%rsp)
	movq	%r14, 112(%rsp)
	movq	(%rbp), %rax
	movq	-8(%rax), %rbx
	movl	%ebx, %edi
	callq	push_jit_object
	addq	$-8, (%rbp)
	movq	$0, 96(%rsp)
	movq	%rbx, 96(%rsp)
	movl	$0, gSigInt(%rip)
	movq	$0, 104(%rsp)
	movl	$0, gSigInt(%rip)
	movl	$7304, %esi             # imm = 0x1C88
	movq	176(%rsp), %rdi
	callq	get_class_with_load_and_initialize_in_jit
	testq	%rax, %rax
	je	.LBB16_1
# BB#9:                                 # %entry_ifend94
	movq	$0, (%r13)
	movq	16(%rsp), %rcx          # 8-byte Reload
	movq	%rcx, (%r13)
	movq	$0, 8(%r13)
	movq	%r12, 8(%r13)
	movq	$0, 16(%r13)
	movq	24(%rsp), %rdi          # 8-byte Reload
	movq	%rdi, 16(%r13)
	movq	$0, 24(%r13)
	movq	32(%rsp), %rsi          # 8-byte Reload
	movq	%rsi, 24(%r13)
	movq	$0, 32(%r13)
	movq	%rbx, 32(%r13)
	movq	$0, 40(%r13)
	movq	$0, 48(%r13)
	movq	%r14, 48(%r13)
	movq	(%rbp), %rcx
	movq	$0, (%rcx)
	movl	%r12d, %edx
	movq	%rdx, (%rcx)
	movq	(%rbp), %rcx
	leaq	8(%rcx), %rdx
	movq	%rdx, (%rbp)
	movq	$0, 8(%rcx)
	movl	%ebx, %edx
	movq	%rdx, 8(%rcx)
	movq	(%rbp), %rcx
	leaq	8(%rcx), %rdx
	movq	%rdx, (%rbp)
	movq	$0, 8(%rcx)
	movq	(%rbp), %rcx
	leaq	8(%rcx), %rdx
	movq	%rdx, (%rbp)
	movq	$0, 8(%rcx)
	movl	%edi, %edx
	movq	%rdx, 8(%rcx)
	movq	(%rbp), %rcx
	leaq	8(%rcx), %rdx
	movq	%rdx, (%rbp)
	movq	$0, 8(%rcx)
	movl	%esi, %edx
	movq	%rdx, 8(%rcx)
	addq	$8, (%rbp)
	movl	$25, %esi
	movq	%rax, %rdi
	movq	%r15, %rdx
	movl	52(%rsp), %ecx          # 4-byte Reload
	movq	%rbp, %r8
	movq	56(%rsp), %rbx          # 8-byte Reload
	movq	%rbx, %r9
	callq	call_invoke_method
	cmpl	$1, %eax
	je	.LBB16_10
.LBB16_5:                               # %then_block24
	movq	%rbx, %rdi
	callq	get_try_catch_label_name
.LBB16_1:                               # %then_block
	xorl	%eax, %eax
.LBB16_2:                               # %then_block
	addq	$120, %rsp
	popq	%rbx
	popq	%r12
	popq	%r13
	popq	%r14
	popq	%r15
	popq	%rbp
	retq
.LBB16_10:                              # %entry_ifend127
	movq	(%r15), %rax
	movq	$0, 64(%rsp)
	movq	%rax, 64(%rsp)
	movq	8(%r15), %rax
	movq	$0, 72(%rsp)
	movq	%rax, 72(%rsp)
	movq	16(%r15), %rax
	movq	$0, 80(%rsp)
	movq	%rax, 80(%rsp)
	movq	24(%r15), %rax
	movq	$0, 88(%rsp)
	movq	%rax, 88(%rsp)
	movq	32(%r15), %rax
	movq	$0, 96(%rsp)
	movq	%rax, 96(%rsp)
	movq	40(%r15), %rax
	movq	$0, 104(%rsp)
	movq	%rax, 104(%rsp)
	movq	48(%r15), %rax
	movq	$0, 112(%rsp)
	movq	%rax, 112(%rsp)
	movq	(%rbp), %rax
	movq	-8(%rax), %rbx
	movl	%ebx, %edi
	callq	push_jit_object
	addq	$-8, (%rbp)
	movq	$0, 112(%rsp)
	movq	%rbx, 112(%rsp)
	movl	$0, gSigInt(%rip)
	testl	%ebx, %ebx
	setg	%al
	movzbl	%al, %eax
	movq	%rax, (%r15)
	movl	$1, %eax
	jmp	.LBB16_2
.Lfunc_end16:
	.size	"String.match(regex)$$20", .Lfunc_end16-"String.match(regex)$$20"
	.cfi_endproc

	.globl	"String.match(regex,EqualableList)$$21"
	.align	16, 0x90
	.type	"String.match(regex,EqualableList)$$21",@function
"String.match(regex,EqualableList)$$21": # @"String.match(regex,EqualableList)$$21"
	.cfi_startproc
# BB#0:                                 # %entry
	pushq	%rbp
.Ltmp198:
	.cfi_def_cfa_offset 16
	pushq	%r15
.Ltmp199:
	.cfi_def_cfa_offset 24
	pushq	%r14
.Ltmp200:
	.cfi_def_cfa_offset 32
	pushq	%r13
.Ltmp201:
	.cfi_def_cfa_offset 40
	pushq	%r12
.Ltmp202:
	.cfi_def_cfa_offset 48
	pushq	%rbx
.Ltmp203:
	.cfi_def_cfa_offset 56
	subq	$136, %rsp
.Ltmp204:
	.cfi_def_cfa_offset 192
.Ltmp205:
	.cfi_offset %rbx, -56
.Ltmp206:
	.cfi_offset %r12, -48
.Ltmp207:
	.cfi_offset %r13, -40
.Ltmp208:
	.cfi_offset %r14, -32
.Ltmp209:
	.cfi_offset %r15, -24
.Ltmp210:
	.cfi_offset %rbp, -16
	movl	%r9d, 36(%rsp)          # 4-byte Spill
	movq	%r8, %r15
	movq	%rdx, 24(%rsp)          # 8-byte Spill
	movq	%rsi, %r12
	movq	192(%rsp), %rbp
	movq	(%rcx), %rax
	movq	$0, 40(%rsp)
	movq	%rax, 40(%rsp)
	movq	8(%rcx), %rax
	movq	$0, 48(%rsp)
	movq	%rax, 48(%rsp)
	movq	16(%rcx), %rax
	movq	%rcx, %r14
	movq	$0, 56(%rsp)
	movq	%rax, 56(%rsp)
	movq	$0, 64(%rsp)
	movq	$0, 72(%rsp)
	movq	$0, 80(%rsp)
	movq	$0, 88(%rsp)
	movq	$0, 96(%rsp)
	movq	$0, 104(%rsp)
	movq	$0, 112(%rsp)
	movl	$0, gSigInt(%rip)
	movq	$0, 64(%rsp)
	movq	$16, 64(%rsp)
	movl	$0, gSigInt(%rip)
	movl	$7312, %esi             # imm = 0x1C90
	movq	%rbp, %rdi
	callq	get_class_with_load_and_initialize_in_jit
	testq	%rax, %rax
	je	.LBB17_1
# BB#3:                                 # %entry_ifend
	movq	%rax, %rdi
	callq	create_object
	movl	%eax, %ebx
	movl	%ebx, %edi
	callq	push_jit_object
	movl	64(%rsp), %r13d
	movl	$7324, %esi             # imm = 0x1C9C
	movq	%rbp, %rdi
	callq	get_class_with_load_and_initialize_in_jit
	testq	%rax, %rax
	je	.LBB17_1
# BB#4:                                 # %entry_ifend6
	movq	40(%rsp), %rcx
	movq	$0, (%r12)
	movq	%rcx, (%r12)
	movq	48(%rsp), %rcx
	movq	$0, 8(%r12)
	movq	%rcx, 8(%r12)
	movq	56(%rsp), %rcx
	movq	$0, 16(%r12)
	movq	%rcx, 16(%r12)
	movq	64(%rsp), %rcx
	movq	$0, 24(%r12)
	movq	%rcx, 24(%r12)
	movq	72(%rsp), %rcx
	movq	$0, 32(%r12)
	movq	%rcx, 32(%r12)
	movq	80(%rsp), %rcx
	movq	$0, 40(%r12)
	movq	%rcx, 40(%r12)
	movq	88(%rsp), %rcx
	movq	$0, 48(%r12)
	movq	%rcx, 48(%r12)
	movq	96(%rsp), %rcx
	movq	$0, 56(%r12)
	movq	%rcx, 56(%r12)
	movq	104(%rsp), %rcx
	movq	$0, 64(%r12)
	movq	%rcx, 64(%r12)
	movq	112(%rsp), %rcx
	movq	$0, 72(%r12)
	movq	%rcx, 72(%r12)
	movq	(%r15), %rcx
	movq	$0, (%rcx)
	movl	%ebx, %edx
	movq	%rdx, (%rcx)
	movq	(%r15), %rcx
	leaq	8(%rcx), %rdx
	movq	%rdx, (%r15)
	movq	$0, 8(%rcx)
	movl	%r13d, %edx
	movq	%r15, %r13
	movq	%rdx, 8(%rcx)
	addq	$8, (%r13)
	xorl	%esi, %esi
	movq	%rax, %rdi
	movq	%r14, %r15
	movq	%r15, %rdx
	movl	36(%rsp), %ecx          # 4-byte Reload
	movq	%r13, %r8
	movq	24(%rsp), %r14          # 8-byte Reload
	movq	%r14, %r9
	callq	call_invoke_method
	cmpl	$1, %eax
	jne	.LBB17_5
# BB#6:                                 # %entry_ifend33
	movq	(%r15), %rax
	movq	$0, 40(%rsp)
	movq	%rax, 40(%rsp)
	movq	8(%r15), %rax
	movq	$0, 48(%rsp)
	movq	%rax, 48(%rsp)
	movq	16(%r15), %rax
	movq	$0, 56(%rsp)
	movq	%rax, 56(%rsp)
	movq	24(%r15), %rax
	movq	$0, 64(%rsp)
	movq	%rax, 64(%rsp)
	movq	32(%r15), %rax
	movq	$0, 72(%rsp)
	movq	%rax, 72(%rsp)
	movq	40(%r15), %rax
	movq	$0, 80(%rsp)
	movq	%rax, 80(%rsp)
	movq	48(%r15), %rax
	movq	$0, 88(%rsp)
	movq	%rax, 88(%rsp)
	movq	56(%r15), %rax
	movq	$0, 96(%rsp)
	movq	%rax, 96(%rsp)
	movq	64(%r15), %rax
	movq	$0, 104(%rsp)
	movq	%rax, 104(%rsp)
	movq	72(%r15), %rax
	movq	$0, 112(%rsp)
	movq	%rax, 112(%rsp)
	movq	(%r13), %rax
	movq	-8(%rax), %rbx
	movl	%ebx, %edi
	callq	push_jit_object
	addq	$-8, (%r13)
	movq	%r13, %rbp
	movq	$0, 72(%rsp)
	movq	%rbx, 72(%rsp)
	movl	$0, gSigInt(%rip)
	movl	40(%rsp), %r13d
	movl	$7336, %esi             # imm = 0x1CA8
	movq	192(%rsp), %rbx
	movq	%rbx, %rdi
	callq	get_class_with_load_and_initialize_in_jit
	testq	%rax, %rax
	je	.LBB17_1
# BB#7:                                 # %entry_ifend59
	movq	40(%rsp), %rcx
	movq	$0, (%r12)
	movq	%rcx, (%r12)
	movq	48(%rsp), %rcx
	movq	$0, 8(%r12)
	movq	%rcx, 8(%r12)
	movq	56(%rsp), %rcx
	movq	$0, 16(%r12)
	movq	%rcx, 16(%r12)
	movq	64(%rsp), %rcx
	movq	$0, 24(%r12)
	movq	%rcx, 24(%r12)
	movq	72(%rsp), %rcx
	movq	$0, 32(%r12)
	movq	%rcx, 32(%r12)
	movq	80(%rsp), %rcx
	movq	$0, 40(%r12)
	movq	%rcx, 40(%r12)
	movq	88(%rsp), %rcx
	movq	$0, 48(%r12)
	movq	%rcx, 48(%r12)
	movq	96(%rsp), %rcx
	movq	$0, 56(%r12)
	movq	%rcx, 56(%r12)
	movq	104(%rsp), %rcx
	movq	$0, 64(%r12)
	movq	%rcx, 64(%r12)
	movq	112(%rsp), %rcx
	movq	$0, 72(%r12)
	movq	%rcx, 72(%r12)
	movq	(%rbp), %rcx
	movq	$0, (%rcx)
	movl	%r13d, %edx
	movq	%rbp, %r13
	movq	%rdx, (%rcx)
	addq	$8, (%r13)
	movl	$48, %esi
	movq	%rax, %rdi
	movq	%r15, %rdx
	movl	36(%rsp), %ecx          # 4-byte Reload
	movq	%r13, %r8
	movq	%r14, %r9
	callq	call_invoke_method
	cmpl	$1, %eax
	jne	.LBB17_5
# BB#8:                                 # %entry_ifend86
	movq	(%r15), %rax
	movq	$0, 40(%rsp)
	movq	%rax, 40(%rsp)
	movq	8(%r15), %rax
	movq	$0, 48(%rsp)
	movq	%rax, 48(%rsp)
	movq	16(%r15), %rax
	movq	$0, 56(%rsp)
	movq	%rax, 56(%rsp)
	movq	24(%r15), %rax
	movq	$0, 64(%rsp)
	movq	%rax, 64(%rsp)
	movq	32(%r15), %rax
	movq	$0, 72(%rsp)
	movq	%rax, 72(%rsp)
	movq	40(%r15), %rax
	movq	$0, 80(%rsp)
	movq	%rax, 80(%rsp)
	movq	48(%r15), %rax
	movq	$0, 88(%rsp)
	movq	%rax, 88(%rsp)
	movq	56(%r15), %rax
	movq	$0, 96(%rsp)
	movq	%rax, 96(%rsp)
	movq	64(%r15), %rax
	movq	$0, 104(%rsp)
	movq	%rax, 104(%rsp)
	movq	72(%r15), %rax
	movq	$0, 112(%rsp)
	movq	%rax, 112(%rsp)
	movq	(%r13), %rax
	movq	%r13, %rbp
	movq	-8(%rax), %r13
	movl	%r13d, %edi
	callq	push_jit_object
	addq	$-8, (%rbp)
	movq	$0, 80(%rsp)
	movq	%r13, 80(%rsp)
	movl	$0, gSigInt(%rip)
	movq	$0, 88(%rsp)
	movl	$0, gSigInt(%rip)
	movl	48(%rsp), %r14d
	movl	64(%rsp), %eax
	movl	%eax, 8(%rsp)           # 4-byte Spill
	movl	72(%rsp), %eax
	movl	%eax, 20(%rsp)          # 4-byte Spill
	movl	$7344, %esi             # imm = 0x1CB0
	movq	%rbx, %rdi
	callq	get_class_with_load_and_initialize_in_jit
	testq	%rax, %rax
	je	.LBB17_1
# BB#9:                                 # %entry_ifend120
	movq	40(%rsp), %rcx
	movq	$0, (%r12)
	movq	%rcx, (%r12)
	movq	48(%rsp), %rcx
	movq	$0, 8(%r12)
	movq	%rcx, 8(%r12)
	movq	56(%rsp), %rcx
	movq	$0, 16(%r12)
	movq	%rcx, 16(%r12)
	movq	64(%rsp), %rcx
	movq	$0, 24(%r12)
	movq	%rcx, 24(%r12)
	movq	72(%rsp), %rcx
	movq	$0, 32(%r12)
	movq	%rcx, 32(%r12)
	movq	80(%rsp), %rcx
	movq	$0, 40(%r12)
	movq	%rcx, 40(%r12)
	movq	88(%rsp), %rcx
	movq	$0, 48(%r12)
	movq	%rcx, 48(%r12)
	movq	96(%rsp), %rcx
	movq	$0, 56(%r12)
	movq	%rcx, 56(%r12)
	movq	104(%rsp), %rcx
	movq	$0, 64(%r12)
	movq	%rcx, 64(%r12)
	movq	112(%rsp), %rcx
	movq	$0, 72(%r12)
	movq	%rcx, 72(%r12)
	movq	(%rbp), %rcx
	movq	$0, (%rcx)
	movl	%r14d, %edx
	movq	%rdx, (%rcx)
	movq	(%rbp), %rcx
	leaq	8(%rcx), %rdx
	movq	%rdx, (%rbp)
	movq	$0, 8(%rcx)
	movl	%r13d, %edx
	movq	%rbp, %r13
	movq	%rdx, 8(%rcx)
	movq	(%r13), %rcx
	leaq	8(%rcx), %rdx
	movq	%rdx, (%r13)
	movq	$0, 8(%rcx)
	movq	(%r13), %rcx
	leaq	8(%rcx), %rdx
	movq	%rdx, (%r13)
	movq	$0, 8(%rcx)
	movl	8(%rsp), %edx           # 4-byte Reload
	movq	%rdx, 8(%rcx)
	movq	(%r13), %rcx
	leaq	8(%rcx), %rdx
	movq	%rdx, (%r13)
	movq	$0, 8(%rcx)
	movl	20(%rsp), %edx          # 4-byte Reload
	movq	%rdx, 8(%rcx)
	addq	$8, (%r13)
	movl	$25, %esi
	movq	%rax, %rdi
	movq	%r15, %rbp
	movq	%rbp, %rdx
	movl	36(%rsp), %ecx          # 4-byte Reload
	movq	%r13, %r8
	movq	24(%rsp), %r14          # 8-byte Reload
	movq	%r14, %r9
	callq	call_invoke_method
	cmpl	$1, %eax
	jne	.LBB17_5
# BB#10:                                # %entry_ifend159
	movq	(%rbp), %rax
	movq	$0, 40(%rsp)
	movq	%rax, 40(%rsp)
	movq	8(%rbp), %rax
	movq	$0, 48(%rsp)
	movq	%rax, 48(%rsp)
	movq	16(%rbp), %rax
	movq	$0, 56(%rsp)
	movq	%rax, 56(%rsp)
	movq	24(%rbp), %rax
	movq	$0, 64(%rsp)
	movq	%rax, 64(%rsp)
	movq	32(%rbp), %rax
	movq	$0, 72(%rsp)
	movq	%rax, 72(%rsp)
	movq	40(%rbp), %rax
	movq	$0, 80(%rsp)
	movq	%rax, 80(%rsp)
	movq	48(%rbp), %rax
	movq	$0, 88(%rsp)
	movq	%rax, 88(%rsp)
	movq	56(%rbp), %rax
	movq	$0, 96(%rsp)
	movq	%rax, 96(%rsp)
	movq	64(%rbp), %rax
	movq	$0, 104(%rsp)
	movq	%rax, 104(%rsp)
	movq	72(%rbp), %rax
	movq	$0, 112(%rsp)
	movq	%rax, 112(%rsp)
	movq	(%r13), %rax
	movq	-8(%rax), %r15
	movl	%r15d, %edi
	callq	push_jit_object
	addq	$-8, (%r13)
	movq	$0, 96(%rsp)
	movq	%r15, 96(%rsp)
	movl	$0, gSigInt(%rip)
	cmpl	$1, %r15d
	sete	%al
	movq	$0, 120(%rsp)
	movzbl	%al, %eax
	movq	%rax, 120(%rsp)
	je	.LBB17_14
# BB#11:                                # %entry_condnotend
	cmpl	$0, 56(%rsp)
	sete	%al
	movq	$0, 128(%rsp)
	movzbl	%al, %eax
	movq	%rax, 128(%rsp)
	jne	.LBB17_13
# BB#12:                                # %entry_condend
	testl	%r15d, %r15d
	setg	%al
	movzbl	%al, %eax
	movq	%rax, 128(%rsp)
.LBB17_13:                              # %label_and_endpointzzzzzzzzzzzzzzzzzm
	movq	%rax, 120(%rsp)
.LBB17_14:                              # %label_or_endpointzzzzzzzzzzzzzzzzzl
	testq	%rax, %rax
	je	.LBB17_17
# BB#15:                                # %entry_condend195
	movl	$0, gSigInt(%rip)
.LBB17_16:                              # %label_for_endzzzzzzzzzzzzzzzzzn
	movq	$1, (%rbp)
	movl	$1, %eax
	jmp	.LBB17_2
.LBB17_17:                              # %label_elifzzzzzzzzzzzzzzzzzk1a
	movl	$0, gSigInt(%rip)
	cmpl	$2, %r15d
	jl	.LBB17_31
# BB#18:                                # %entry_condend201
	movq	$0, 104(%rsp)
	movq	$1, 104(%rsp)
	movl	$1, %eax
	jmp	.LBB17_19
.LBB17_30:                              # %entry_ifend377
                                        #   in Loop: Header=BB17_19 Depth=1
	movq	(%rbp), %rax
	movq	$0, 40(%rsp)
	movq	%rax, 40(%rsp)
	movq	8(%rbp), %rax
	movq	$0, 48(%rsp)
	movq	%rax, 48(%rsp)
	movq	16(%rbp), %rax
	movq	$0, 56(%rsp)
	movq	%rax, 56(%rsp)
	movq	24(%rbp), %rax
	movq	$0, 64(%rsp)
	movq	%rax, 64(%rsp)
	movq	32(%rbp), %rax
	movq	$0, 72(%rsp)
	movq	%rax, 72(%rsp)
	movq	40(%rbp), %rax
	movq	$0, 80(%rsp)
	movq	%rax, 80(%rsp)
	movq	48(%rbp), %rax
	movq	$0, 88(%rsp)
	movq	%rax, 88(%rsp)
	movq	56(%rbp), %rax
	movq	$0, 96(%rsp)
	movq	%rax, 96(%rsp)
	movq	64(%rbp), %rax
	movq	$0, 104(%rsp)
	movq	%rax, 104(%rsp)
	movq	72(%rbp), %rax
	movq	$0, 112(%rsp)
	movq	%rax, 112(%rsp)
	movq	(%r13), %rax
	movl	-8(%rax), %edi
	callq	push_jit_object
	addq	$-8, (%r13)
	movl	104(%rsp), %eax
	incl	%eax
	movq	$0, 104(%rsp)
	movq	%rax, 104(%rsp)
.LBB17_19:                              # %for_start_pointzzzzzzzzzzzzzzzzzn
                                        # =>This Inner Loop Header: Depth=1
	movl	96(%rsp), %ecx
	movl	$0, gSigInt(%rip)
	cmpl	%ecx, %eax
	jge	.LBB17_16
# BB#20:                                # %entry_condend206
                                        #   in Loop: Header=BB17_19 Depth=1
	movl	80(%rsp), %eax
	movl	%eax, 20(%rsp)          # 4-byte Spill
	movl	72(%rsp), %r8d
	xorl	%r9d, %r9d
	movq	%r13, %rdi
	movq	%rbp, %rsi
	movq	%rbp, %r15
	movl	36(%rsp), %edx          # 4-byte Reload
	movq	%r14, %rcx
	callq	get_field_from_object
	cmpl	$0, 8(%rax)
	movq	192(%rsp), %rbx
	je	.LBB17_1
# BB#21:                                # %entry_ifend211
                                        #   in Loop: Header=BB17_19 Depth=1
	movq	(%rax), %r8
	movl	104(%rsp), %r9d
	movq	%r13, %rdi
	movq	%r15, %rsi
	movl	36(%rsp), %edx          # 4-byte Reload
	movq	%r14, %rcx
	callq	load_element
	cmpl	$0, 8(%rax)
	je	.LBB17_1
# BB#22:                                # %entry_ifend215
                                        #   in Loop: Header=BB17_19 Depth=1
	movq	(%rax), %rbp
	movl	72(%rsp), %r8d
	movl	$1, %r9d
	movq	%r13, %rdi
	movq	%r15, %rsi
	movl	36(%rsp), %edx          # 4-byte Reload
	movq	%r14, %rcx
	callq	get_field_from_object
	cmpl	$0, 8(%rax)
	je	.LBB17_1
# BB#23:                                # %entry_ifend219
                                        #   in Loop: Header=BB17_19 Depth=1
	movq	(%rax), %r8
	movl	104(%rsp), %r9d
	movq	%r13, %rdi
	movq	%r15, %rsi
	movl	36(%rsp), %edx          # 4-byte Reload
	movq	%r14, %rcx
	callq	load_element
	cmpl	$0, 8(%rax)
	je	.LBB17_1
# BB#24:                                # %entry_ifend224
                                        #   in Loop: Header=BB17_19 Depth=1
	movq	(%rax), %rax
	movq	%rax, 8(%rsp)           # 8-byte Spill
	movl	$7704, %esi             # imm = 0x1E18
	movq	%rbx, %rdi
	callq	get_class_with_load_and_initialize_in_jit
	testq	%rax, %rax
	je	.LBB17_1
# BB#25:                                # %entry_ifend227
                                        #   in Loop: Header=BB17_19 Depth=1
	movq	40(%rsp), %rcx
	movq	$0, (%r12)
	movq	%rcx, (%r12)
	movq	48(%rsp), %rcx
	movq	$0, 8(%r12)
	movq	%rcx, 8(%r12)
	movq	56(%rsp), %rcx
	movq	$0, 16(%r12)
	movq	%rcx, 16(%r12)
	movq	64(%rsp), %rcx
	movq	$0, 24(%r12)
	movq	%rcx, 24(%r12)
	movq	72(%rsp), %rcx
	movq	$0, 32(%r12)
	movq	%rcx, 32(%r12)
	movq	80(%rsp), %rcx
	movq	$0, 40(%r12)
	movq	%rcx, 40(%r12)
	movq	88(%rsp), %rcx
	movq	$0, 48(%r12)
	movq	%rcx, 48(%r12)
	movq	96(%rsp), %rcx
	movq	$0, 56(%r12)
	movq	%rcx, 56(%r12)
	movq	104(%rsp), %rcx
	movq	$0, 64(%r12)
	movq	%rcx, 64(%r12)
	movq	112(%rsp), %rcx
	movq	$0, 72(%r12)
	movq	%rcx, 72(%r12)
	movq	%rbp, %rsi
	movq	(%r13), %rcx
	movq	$0, (%rcx)
	movl	20(%rsp), %edx          # 4-byte Reload
	movq	%rdx, (%rcx)
	movq	(%r13), %rcx
	leaq	8(%rcx), %rdx
	movq	%rdx, (%r13)
	movq	$0, 8(%rcx)
	movl	%esi, %edx
	movq	%rdx, 8(%rcx)
	movq	(%r13), %rcx
	leaq	8(%rcx), %rdx
	movq	%rdx, (%r13)
	movq	$0, 8(%rcx)
	movq	8(%rsp), %rdx           # 8-byte Reload
	movl	%edx, %edx
	movq	%rdx, 8(%rcx)
	addq	$8, (%r13)
	movl	$11, %esi
	movq	%rax, %rdi
	movq	%r15, %rdx
	movl	36(%rsp), %ecx          # 4-byte Reload
	movq	%r13, %r8
	movq	%r14, %r9
	callq	call_invoke_method
	cmpl	$1, %eax
	jne	.LBB17_5
# BB#26:                                # %entry_ifend260
                                        #   in Loop: Header=BB17_19 Depth=1
	movq	(%r15), %rax
	movq	$0, 40(%rsp)
	movq	%rax, 40(%rsp)
	movq	8(%r15), %rax
	movq	$0, 48(%rsp)
	movq	%rax, 48(%rsp)
	movq	16(%r15), %rax
	movq	$0, 56(%rsp)
	movq	%rax, 56(%rsp)
	movq	24(%r15), %rax
	movq	$0, 64(%rsp)
	movq	%rax, 64(%rsp)
	movq	32(%r15), %rax
	movq	$0, 72(%rsp)
	movq	%rax, 72(%rsp)
	movq	40(%r15), %rax
	movq	$0, 80(%rsp)
	movq	%rax, 80(%rsp)
	movq	48(%r15), %rax
	movq	$0, 88(%rsp)
	movq	%rax, 88(%rsp)
	movq	56(%r15), %rax
	movq	$0, 96(%rsp)
	movq	%rax, 96(%rsp)
	movq	64(%r15), %rax
	movq	$0, 104(%rsp)
	movq	%rax, 104(%rsp)
	movq	72(%r15), %rax
	movq	$0, 112(%rsp)
	movq	%rax, 112(%rsp)
	movq	(%r13), %rax
	movq	%r13, %rbp
	movq	-8(%rax), %r13
	movl	%r13d, %edi
	callq	push_jit_object
	addq	$-8, (%rbp)
	movl	$7712, %esi             # imm = 0x1E20
	movq	%rbx, %rdi
	callq	get_class_with_load_and_initialize_in_jit
	testq	%rax, %rax
	je	.LBB17_1
# BB#27:                                # %entry_ifend289
                                        #   in Loop: Header=BB17_19 Depth=1
	movq	40(%rsp), %rcx
	movq	$0, (%r12)
	movq	%rcx, (%r12)
	movq	48(%rsp), %rcx
	movq	$0, 8(%r12)
	movq	%rcx, 8(%r12)
	movq	56(%rsp), %rcx
	movq	$0, 16(%r12)
	movq	%rcx, 16(%r12)
	movq	64(%rsp), %rcx
	movq	$0, 24(%r12)
	movq	%rcx, 24(%r12)
	movq	72(%rsp), %rcx
	movq	$0, 32(%r12)
	movq	%rcx, 32(%r12)
	movq	80(%rsp), %rcx
	movq	$0, 40(%r12)
	movq	%rcx, 40(%r12)
	movq	88(%rsp), %rcx
	movq	$0, 48(%r12)
	movq	%rcx, 48(%r12)
	movq	96(%rsp), %rcx
	movq	$0, 56(%r12)
	movq	%rcx, 56(%r12)
	movq	104(%rsp), %rcx
	movq	$0, 64(%r12)
	movq	%rcx, 64(%r12)
	movq	112(%rsp), %rcx
	movq	$0, 72(%r12)
	movq	%rcx, 72(%r12)
	movq	(%rbp), %rcx
	movq	$0, (%rcx)
	movq	%r13, (%rcx)
	movq	%rbp, %r13
	addq	$8, (%r13)
	movl	$10, %esi
	movq	%rax, %rdi
	movq	%r15, %rdx
	movl	36(%rsp), %ecx          # 4-byte Reload
	movq	%r13, %r8
	movq	%r14, %r9
	callq	call_invoke_method
	cmpl	$1, %eax
	jne	.LBB17_5
# BB#28:                                # %entry_ifend316
                                        #   in Loop: Header=BB17_19 Depth=1
	movq	(%r15), %rax
	movq	$0, 40(%rsp)
	movq	%rax, 40(%rsp)
	movq	8(%r15), %rax
	movq	$0, 48(%rsp)
	movq	%rax, 48(%rsp)
	movq	16(%r15), %rax
	movq	$0, 56(%rsp)
	movq	%rax, 56(%rsp)
	movq	24(%r15), %rax
	movq	$0, 64(%rsp)
	movq	%rax, 64(%rsp)
	movq	32(%r15), %rax
	movq	$0, 72(%rsp)
	movq	%rax, 72(%rsp)
	movq	40(%r15), %rax
	movq	$0, 80(%rsp)
	movq	%rax, 80(%rsp)
	movq	48(%r15), %rax
	movq	$0, 88(%rsp)
	movq	%rax, 88(%rsp)
	movq	56(%r15), %rax
	movq	$0, 96(%rsp)
	movq	%rax, 96(%rsp)
	movq	64(%r15), %rax
	movq	$0, 104(%rsp)
	movq	%rax, 104(%rsp)
	movq	72(%r15), %rax
	movq	$0, 112(%rsp)
	movq	%rax, 112(%rsp)
	movq	(%r13), %rax
	movq	%r13, %rbp
	movq	-8(%rax), %r13
	movl	%r13d, %edi
	callq	push_jit_object
	addq	$-8, (%rbp)
	movq	$0, 112(%rsp)
	movq	%r13, 112(%rsp)
	movl	$0, gSigInt(%rip)
	movl	56(%rsp), %r14d
	movl	$7720, %esi             # imm = 0x1E28
	movq	%rbx, %rdi
	callq	get_class_with_load_and_initialize_in_jit
	testq	%rax, %rax
	je	.LBB17_1
# BB#29:                                # %entry_ifend347
                                        #   in Loop: Header=BB17_19 Depth=1
	movq	40(%rsp), %rcx
	movq	$0, (%r12)
	movq	%rcx, (%r12)
	movq	48(%rsp), %rcx
	movq	$0, 8(%r12)
	movq	%rcx, 8(%r12)
	movq	56(%rsp), %rcx
	movq	$0, 16(%r12)
	movq	%rcx, 16(%r12)
	movq	64(%rsp), %rcx
	movq	$0, 24(%r12)
	movq	%rcx, 24(%r12)
	movq	72(%rsp), %rcx
	movq	$0, 32(%r12)
	movq	%rcx, 32(%r12)
	movq	80(%rsp), %rcx
	movq	$0, 40(%r12)
	movq	%rcx, 40(%r12)
	movq	88(%rsp), %rcx
	movq	$0, 48(%r12)
	movq	%rcx, 48(%r12)
	movq	96(%rsp), %rcx
	movq	$0, 56(%r12)
	movq	%rcx, 56(%r12)
	movq	104(%rsp), %rcx
	movq	$0, 64(%r12)
	movq	%rcx, 64(%r12)
	movq	112(%rsp), %rcx
	movq	$0, 72(%r12)
	movq	%rcx, 72(%r12)
	movq	(%rbp), %rcx
	movq	$0, (%rcx)
	movl	%r14d, %edx
	movq	%rdx, (%rcx)
	movq	(%rbp), %rcx
	leaq	8(%rcx), %rdx
	movq	%rdx, (%rbp)
	movq	$0, 8(%rcx)
	movl	%r13d, %edx
	movq	%rbp, %r13
	movq	%rdx, 8(%rcx)
	addq	$8, (%r13)
	movl	$7, %esi
	movq	%rax, %rdi
	movq	%r15, %rbp
	movq	%rbp, %rdx
	movl	36(%rsp), %ecx          # 4-byte Reload
	movq	%r13, %r8
	movq	24(%rsp), %r14          # 8-byte Reload
	movq	%r14, %r9
	callq	call_invoke_method
	cmpl	$1, %eax
	je	.LBB17_30
.LBB17_5:                               # %then_block32
	movq	%r14, %rdi
	callq	get_try_catch_label_name
.LBB17_1:                               # %then_block
	xorl	%eax, %eax
.LBB17_2:                               # %then_block
	addq	$136, %rsp
	popq	%rbx
	popq	%r12
	popq	%r13
	popq	%r14
	popq	%r15
	popq	%rbp
	retq
.LBB17_31:                              # %label_if_elifzzzzzzzzzzzzzzzzzk0a
	movq	$0, (%rbp)
	movl	$1, %eax
	jmp	.LBB17_2
.Lfunc_end17:
	.size	"String.match(regex,EqualableList)$$21", .Lfunc_end17-"String.match(regex,EqualableList)$$21"
	.cfi_endproc

	.globl	"String.sub(regex,Self,EqualableList)$$22"
	.align	16, 0x90
	.type	"String.sub(regex,Self,EqualableList)$$22",@function
"String.sub(regex,Self,EqualableList)$$22": # @"String.sub(regex,Self,EqualableList)$$22"
	.cfi_startproc
# BB#0:                                 # %entry
	pushq	%rbp
.Ltmp211:
	.cfi_def_cfa_offset 16
	pushq	%r15
.Ltmp212:
	.cfi_def_cfa_offset 24
	pushq	%r14
.Ltmp213:
	.cfi_def_cfa_offset 32
	pushq	%r13
.Ltmp214:
	.cfi_def_cfa_offset 40
	pushq	%r12
.Ltmp215:
	.cfi_def_cfa_offset 48
	pushq	%rbx
.Ltmp216:
	.cfi_def_cfa_offset 56
	subq	$168, %rsp
.Ltmp217:
	.cfi_def_cfa_offset 224
.Ltmp218:
	.cfi_offset %rbx, -56
.Ltmp219:
	.cfi_offset %r12, -48
.Ltmp220:
	.cfi_offset %r13, -40
.Ltmp221:
	.cfi_offset %r14, -32
.Ltmp222:
	.cfi_offset %r15, -24
.Ltmp223:
	.cfi_offset %rbp, -16
	movl	%r9d, 44(%rsp)          # 4-byte Spill
	movq	%r8, %r15
	movq	%rcx, %rbx
	movq	%rdx, %r14
	movq	%rsi, %rbp
	movq	224(%rsp), %r13
	movq	(%rbx), %rax
	movq	$0, 48(%rsp)
	movq	%rax, 48(%rsp)
	movq	8(%rbx), %rax
	movq	$0, 56(%rsp)
	movq	%rax, 56(%rsp)
	movq	16(%rbx), %rax
	movq	$0, 64(%rsp)
	movq	%rax, 64(%rsp)
	movq	24(%rbx), %rax
	movq	$0, 72(%rsp)
	movq	%rax, 72(%rsp)
	movq	$0, 80(%rsp)
	movq	$0, 88(%rsp)
	movq	$0, 96(%rsp)
	movq	$0, 104(%rsp)
	movq	$0, 112(%rsp)
	movq	$0, 120(%rsp)
	movq	$0, 128(%rsp)
	movq	$0, 136(%rsp)
	movq	$0, 144(%rsp)
	movl	$0, gSigInt(%rip)
	movl	$7968, %esi             # imm = 0x1F20
	movq	%r13, %rdi
	callq	get_class_with_load_and_initialize_in_jit
	testq	%rax, %rax
	je	.LBB18_1
# BB#3:                                 # %entry_ifend
	movq	%rax, %rdi
	callq	create_object
	movl	%eax, %r12d
	movl	%r12d, %edi
	callq	push_jit_object
	movl	$7976, %esi             # imm = 0x1F28
	movq	%r13, %rdi
	callq	get_class_with_load_and_initialize_in_jit
	testq	%rax, %rax
	je	.LBB18_1
# BB#4:                                 # %entry_ifend7
	movq	48(%rsp), %rcx
	movq	$0, (%rbp)
	movq	%rcx, (%rbp)
	movq	56(%rsp), %rcx
	movq	$0, 8(%rbp)
	movq	%rcx, 8(%rbp)
	movq	64(%rsp), %rcx
	movq	$0, 16(%rbp)
	movq	%rcx, 16(%rbp)
	movq	72(%rsp), %rcx
	movq	$0, 24(%rbp)
	movq	%rcx, 24(%rbp)
	movq	80(%rsp), %rcx
	movq	$0, 32(%rbp)
	movq	%rcx, 32(%rbp)
	movq	88(%rsp), %rcx
	movq	$0, 40(%rbp)
	movq	%rcx, 40(%rbp)
	movq	96(%rsp), %rcx
	movq	$0, 48(%rbp)
	movq	%rcx, 48(%rbp)
	movq	104(%rsp), %rcx
	movq	$0, 56(%rbp)
	movq	%rcx, 56(%rbp)
	movq	112(%rsp), %rcx
	movq	$0, 64(%rbp)
	movq	%rcx, 64(%rbp)
	movq	120(%rsp), %rcx
	movq	$0, 72(%rbp)
	movq	%rcx, 72(%rbp)
	movq	128(%rsp), %rcx
	movq	$0, 80(%rbp)
	movq	%rcx, 80(%rbp)
	movq	136(%rsp), %rcx
	movq	$0, 88(%rbp)
	movq	%rcx, 88(%rbp)
	movq	144(%rsp), %rcx
	movq	$0, 96(%rbp)
	movq	%rcx, 96(%rbp)
	movq	%rbp, 32(%rsp)          # 8-byte Spill
	movq	%r15, %rbp
	movq	(%rbp), %rcx
	movq	$0, (%rcx)
	movl	%r12d, %edx
	movq	%rdx, (%rcx)
	addq	$8, (%rbp)
	xorl	%esi, %esi
	movq	%rax, %rdi
	movq	%rbx, %rdx
	movq	%rbx, %r15
	movl	44(%rsp), %r12d         # 4-byte Reload
	movq	%rbp, %r13
	movl	%r12d, %ecx
	movq	%r13, %r8
	movq	%r14, %r9
	callq	call_invoke_method
	cmpl	$1, %eax
	jne	.LBB18_5
# BB#6:                                 # %entry_ifend37
	movl	%r12d, %ebp
	movq	(%r15), %rax
	movq	$0, 48(%rsp)
	movq	%rax, 48(%rsp)
	movq	8(%r15), %rax
	movq	$0, 56(%rsp)
	movq	%rax, 56(%rsp)
	movq	16(%r15), %rax
	movq	$0, 64(%rsp)
	movq	%rax, 64(%rsp)
	movq	24(%r15), %rax
	movq	$0, 72(%rsp)
	movq	%rax, 72(%rsp)
	movq	32(%r15), %rax
	movq	$0, 80(%rsp)
	movq	%rax, 80(%rsp)
	movq	40(%r15), %rax
	movq	$0, 88(%rsp)
	movq	%rax, 88(%rsp)
	movq	48(%r15), %rax
	movq	$0, 96(%rsp)
	movq	%rax, 96(%rsp)
	movq	56(%r15), %rax
	movq	$0, 104(%rsp)
	movq	%rax, 104(%rsp)
	movq	64(%r15), %rax
	movq	$0, 112(%rsp)
	movq	%rax, 112(%rsp)
	movq	72(%r15), %rax
	movq	$0, 120(%rsp)
	movq	%rax, 120(%rsp)
	movq	80(%r15), %rax
	movq	$0, 128(%rsp)
	movq	%rax, 128(%rsp)
	movq	88(%r15), %rax
	movq	$0, 136(%rsp)
	movq	%rax, 136(%rsp)
	movq	96(%r15), %rax
	movq	$0, 144(%rsp)
	movq	%rax, 144(%rsp)
	movq	(%r13), %rax
	movq	-8(%rax), %rbx
	movl	%ebx, %edi
	callq	push_jit_object
	addq	$-8, (%r13)
	movq	$0, 80(%rsp)
	movq	%rbx, 80(%rsp)
	movl	$0, gSigInt(%rip)
	movq	$0, 88(%rsp)
	movl	$0, gSigInt(%rip)
	movl	48(%rsp), %ebx
	movl	$7984, %esi             # imm = 0x1F30
	movq	224(%rsp), %rdi
	callq	get_class_with_load_and_initialize_in_jit
	testq	%rax, %rax
	movq	32(%rsp), %r12          # 8-byte Reload
	je	.LBB18_1
# BB#7:                                 # %entry_ifend69
	movq	48(%rsp), %rcx
	movq	$0, (%r12)
	movq	%rcx, (%r12)
	movq	56(%rsp), %rcx
	movq	$0, 8(%r12)
	movq	%rcx, 8(%r12)
	movq	64(%rsp), %rcx
	movq	$0, 16(%r12)
	movq	%rcx, 16(%r12)
	movq	72(%rsp), %rcx
	movq	$0, 24(%r12)
	movq	%rcx, 24(%r12)
	movq	80(%rsp), %rcx
	movq	$0, 32(%r12)
	movq	%rcx, 32(%r12)
	movq	88(%rsp), %rcx
	movq	$0, 40(%r12)
	movq	%rcx, 40(%r12)
	movq	96(%rsp), %rcx
	movq	$0, 48(%r12)
	movq	%rcx, 48(%r12)
	movq	104(%rsp), %rcx
	movq	$0, 56(%r12)
	movq	%rcx, 56(%r12)
	movq	112(%rsp), %rcx
	movq	$0, 64(%r12)
	movq	%rcx, 64(%r12)
	movq	120(%rsp), %rcx
	movq	$0, 72(%r12)
	movq	%rcx, 72(%r12)
	movq	128(%rsp), %rcx
	movq	$0, 80(%r12)
	movq	%rcx, 80(%r12)
	movq	136(%rsp), %rcx
	movq	$0, 88(%r12)
	movq	%rcx, 88(%r12)
	movq	144(%rsp), %rcx
	movq	$0, 96(%r12)
	movq	%rcx, 96(%r12)
	movq	(%r13), %rcx
	movq	$0, (%rcx)
	movl	%ebx, %edx
	movq	%rdx, (%rcx)
	addq	$8, (%r13)
	movl	$48, %esi
	movq	%rax, %rdi
	movq	%r15, %rdx
	movl	%ebp, %ecx
	movq	%r13, %r8
	movq	%r14, %r9
	callq	call_invoke_method
	cmpl	$1, %eax
	je	.LBB18_8
.LBB18_5:                               # %then_block36
	movq	%r14, %rdi
	callq	get_try_catch_label_name
.LBB18_1:                               # %then_block
	xorl	%eax, %eax
.LBB18_2:                               # %then_block
	addq	$168, %rsp
	popq	%rbx
	popq	%r12
	popq	%r13
	popq	%r14
	popq	%r15
	popq	%rbp
	retq
.LBB18_8:                               # %entry_ifend102
	movq	%r14, 24(%rsp)          # 8-byte Spill
	movq	(%r15), %rax
	movq	$0, 48(%rsp)
	movq	%rax, 48(%rsp)
	movq	8(%r15), %rax
	movq	$0, 56(%rsp)
	movq	%rax, 56(%rsp)
	movq	16(%r15), %rax
	movq	$0, 64(%rsp)
	movq	%rax, 64(%rsp)
	movq	24(%r15), %rax
	movq	$0, 72(%rsp)
	movq	%rax, 72(%rsp)
	movq	32(%r15), %rax
	movq	$0, 80(%rsp)
	movq	%rax, 80(%rsp)
	movq	40(%r15), %rax
	movq	$0, 88(%rsp)
	movq	%rax, 88(%rsp)
	movq	48(%r15), %rax
	movq	$0, 96(%rsp)
	movq	%rax, 96(%rsp)
	movq	56(%r15), %rax
	movq	$0, 104(%rsp)
	movq	%rax, 104(%rsp)
	movq	64(%r15), %rax
	movq	$0, 112(%rsp)
	movq	%rax, 112(%rsp)
	movq	72(%r15), %rax
	movq	$0, 120(%rsp)
	movq	%rax, 120(%rsp)
	movq	80(%r15), %rax
	movq	$0, 128(%rsp)
	movq	%rax, 128(%rsp)
	movq	88(%r15), %rax
	movq	$0, 136(%rsp)
	movq	%rax, 136(%rsp)
	movq	96(%r15), %rax
	movq	$0, 144(%rsp)
	movq	%rax, 144(%rsp)
	movq	(%r13), %rax
	movq	-8(%rax), %rbx
	movl	%ebx, %edi
	callq	push_jit_object
	addq	$-8, (%r13)
	movq	%r13, %r14
	movq	$0, 96(%rsp)
	movq	%rbx, 96(%rsp)
	movl	$0, gSigInt(%rip)
	movq	$0, 104(%rsp)
	movq	$16, 104(%rsp)
	movl	$0, gSigInt(%rip)
	movl	$7992, %esi             # imm = 0x1F38
	movq	224(%rsp), %rbx
	movq	%rbx, %rdi
	callq	get_class_with_load_and_initialize_in_jit
	testq	%rax, %rax
	je	.LBB18_1
# BB#9:                                 # %entry_ifend137
	movq	%rax, %rdi
	callq	create_object
	movl	%eax, %r13d
	movl	%r13d, %edi
	callq	push_jit_object
	movl	104(%rsp), %ebp
	movl	$8004, %esi             # imm = 0x1F44
	movq	%rbx, %rdi
	callq	get_class_with_load_and_initialize_in_jit
	testq	%rax, %rax
	je	.LBB18_1
# BB#10:                                # %entry_ifend141
	movq	48(%rsp), %rcx
	movq	$0, (%r12)
	movq	%rcx, (%r12)
	movq	56(%rsp), %rcx
	movq	$0, 8(%r12)
	movq	%rcx, 8(%r12)
	movq	64(%rsp), %rcx
	movq	$0, 16(%r12)
	movq	%rcx, 16(%r12)
	movq	72(%rsp), %rcx
	movq	$0, 24(%r12)
	movq	%rcx, 24(%r12)
	movq	80(%rsp), %rcx
	movq	$0, 32(%r12)
	movq	%rcx, 32(%r12)
	movq	88(%rsp), %rcx
	movq	$0, 40(%r12)
	movq	%rcx, 40(%r12)
	movq	96(%rsp), %rcx
	movq	$0, 48(%r12)
	movq	%rcx, 48(%r12)
	movq	104(%rsp), %rcx
	movq	$0, 56(%r12)
	movq	%rcx, 56(%r12)
	movq	112(%rsp), %rcx
	movq	$0, 64(%r12)
	movq	%rcx, 64(%r12)
	movq	120(%rsp), %rcx
	movq	$0, 72(%r12)
	movq	%rcx, 72(%r12)
	movq	128(%rsp), %rcx
	movq	$0, 80(%r12)
	movq	%rcx, 80(%r12)
	movq	136(%rsp), %rcx
	movq	$0, 88(%r12)
	movq	%rcx, 88(%r12)
	movq	144(%rsp), %rcx
	movq	$0, 96(%r12)
	movq	%rcx, 96(%r12)
	movq	(%r14), %rcx
	movq	$0, (%rcx)
	movl	%r13d, %edx
	movq	%rdx, (%rcx)
	movq	(%r14), %rcx
	leaq	8(%rcx), %rdx
	movq	%rdx, (%r14)
	movq	$0, 8(%rcx)
	movl	%ebp, %edx
	movq	%rdx, 8(%rcx)
	addq	$8, (%r14)
	xorl	%esi, %esi
	movq	%rax, %rdi
	movq	%r15, %rdx
	movl	44(%rsp), %ecx          # 4-byte Reload
	movq	%r14, %r8
	movq	24(%rsp), %rbx          # 8-byte Reload
	movq	%rbx, %r9
	callq	call_invoke_method
	cmpl	$1, %eax
	jne	.LBB18_11
# BB#12:                                # %entry_ifend177
	movq	(%r15), %rax
	movq	$0, 48(%rsp)
	movq	%rax, 48(%rsp)
	movq	8(%r15), %rax
	movq	$0, 56(%rsp)
	movq	%rax, 56(%rsp)
	movq	16(%r15), %rax
	movq	$0, 64(%rsp)
	movq	%rax, 64(%rsp)
	movq	24(%r15), %rax
	movq	$0, 72(%rsp)
	movq	%rax, 72(%rsp)
	movq	32(%r15), %rax
	movq	$0, 80(%rsp)
	movq	%rax, 80(%rsp)
	movq	40(%r15), %rax
	movq	$0, 88(%rsp)
	movq	%rax, 88(%rsp)
	movq	48(%r15), %rax
	movq	$0, 96(%rsp)
	movq	%rax, 96(%rsp)
	movq	56(%r15), %rax
	movq	$0, 104(%rsp)
	movq	%rax, 104(%rsp)
	movq	64(%r15), %rax
	movq	$0, 112(%rsp)
	movq	%rax, 112(%rsp)
	movq	72(%r15), %rax
	movq	$0, 120(%rsp)
	movq	%rax, 120(%rsp)
	movq	80(%r15), %rax
	movq	$0, 128(%rsp)
	movq	%rax, 128(%rsp)
	movq	88(%r15), %rax
	movq	$0, 136(%rsp)
	movq	%rax, 136(%rsp)
	movq	96(%r15), %rax
	movq	$0, 144(%rsp)
	movq	%rax, 144(%rsp)
	movq	(%r14), %rax
	movq	-8(%rax), %rbx
	movl	%ebx, %edi
	callq	push_jit_object
	addq	$-8, (%r14)
	movq	%r14, 16(%rsp)          # 8-byte Spill
	movq	$0, 112(%rsp)
	movq	%rbx, 112(%rsp)
	movl	$0, gSigInt(%rip)
	movq	224(%rsp), %rbp
.LBB18_13:                              # %entry_condend
                                        # =>This Loop Header: Depth=1
                                        #     Child Loop BB18_65 Depth 2
	movl	$0, gSigInt(%rip)
	movl	56(%rsp), %r12d
	movl	96(%rsp), %r13d
	movl	88(%rsp), %r14d
	movl	104(%rsp), %eax
	movl	%eax, 8(%rsp)           # 4-byte Spill
	movl	112(%rsp), %ebx
	movl	$8084, %esi             # imm = 0x1F94
	movq	%rbp, %rdi
	callq	get_class_with_load_and_initialize_in_jit
	testq	%rax, %rax
	je	.LBB18_1
# BB#14:                                # %entry_ifend217
                                        #   in Loop: Header=BB18_13 Depth=1
	movl	%ebx, %edi
	movq	48(%rsp), %rcx
	movq	32(%rsp), %rdx          # 8-byte Reload
	movq	$0, (%rdx)
	movq	%rcx, (%rdx)
	movq	56(%rsp), %rcx
	movq	$0, 8(%rdx)
	movq	%rcx, 8(%rdx)
	movq	64(%rsp), %rcx
	movq	$0, 16(%rdx)
	movq	%rcx, 16(%rdx)
	movq	72(%rsp), %rcx
	movq	$0, 24(%rdx)
	movq	%rcx, 24(%rdx)
	movq	80(%rsp), %rcx
	movq	$0, 32(%rdx)
	movq	%rcx, 32(%rdx)
	movq	88(%rsp), %rcx
	movq	$0, 40(%rdx)
	movq	%rcx, 40(%rdx)
	movq	96(%rsp), %rcx
	movq	$0, 48(%rdx)
	movq	%rcx, 48(%rdx)
	movq	104(%rsp), %rcx
	movq	$0, 56(%rdx)
	movq	%rcx, 56(%rdx)
	movq	112(%rsp), %rcx
	movq	$0, 64(%rdx)
	movq	%rcx, 64(%rdx)
	movq	120(%rsp), %rcx
	movq	$0, 72(%rdx)
	movq	%rcx, 72(%rdx)
	movq	128(%rsp), %rcx
	movq	$0, 80(%rdx)
	movq	%rcx, 80(%rdx)
	movq	136(%rsp), %rcx
	movq	$0, 88(%rdx)
	movq	%rcx, 88(%rdx)
	movq	144(%rsp), %rcx
	movq	$0, 96(%rdx)
	movq	%rcx, 96(%rdx)
	movq	16(%rsp), %rsi          # 8-byte Reload
	movq	(%rsi), %rcx
	movq	$0, (%rcx)
	movl	%r12d, %edx
	movq	%rdx, (%rcx)
	movq	(%rsi), %rcx
	leaq	8(%rcx), %rdx
	movq	%rdx, (%rsi)
	movq	$0, 8(%rcx)
	movl	%r13d, %edx
	movq	%rsi, %rbp
	movq	%rdx, 8(%rcx)
	movq	(%rbp), %rcx
	leaq	8(%rcx), %rdx
	movq	%rdx, (%rbp)
	movq	$0, 8(%rcx)
	movl	%r14d, %edx
	movq	%rdx, 8(%rcx)
	movq	(%rbp), %rcx
	leaq	8(%rcx), %rdx
	movq	%rdx, (%rbp)
	movq	$0, 8(%rcx)
	movl	8(%rsp), %edx           # 4-byte Reload
	movq	%rdx, 8(%rcx)
	movq	(%rbp), %rcx
	leaq	8(%rcx), %rdx
	movq	%rdx, (%rbp)
	movq	$0, 8(%rcx)
	movl	%edi, %edx
	movq	%rdx, 8(%rcx)
	addq	$8, (%rbp)
	movl	$25, %esi
	movq	%rax, %rdi
	movq	%r15, %rdx
	movl	44(%rsp), %ecx          # 4-byte Reload
	movq	%rbp, %r8
	movq	24(%rsp), %rbx          # 8-byte Reload
	movq	%rbx, %r9
	callq	call_invoke_method
	cmpl	$1, %eax
	movq	%r15, %r13
	jne	.LBB18_11
# BB#15:                                # %entry_ifend262
                                        #   in Loop: Header=BB18_13 Depth=1
	movq	(%r13), %rax
	movq	$0, 48(%rsp)
	movq	%rax, 48(%rsp)
	movq	8(%r13), %rax
	movq	$0, 56(%rsp)
	movq	%rax, 56(%rsp)
	movq	16(%r13), %rax
	movq	$0, 64(%rsp)
	movq	%rax, 64(%rsp)
	movq	24(%r13), %rax
	movq	$0, 72(%rsp)
	movq	%rax, 72(%rsp)
	movq	32(%r13), %rax
	movq	$0, 80(%rsp)
	movq	%rax, 80(%rsp)
	movq	40(%r13), %rax
	movq	$0, 88(%rsp)
	movq	%rax, 88(%rsp)
	movq	48(%r13), %rax
	movq	$0, 96(%rsp)
	movq	%rax, 96(%rsp)
	movq	56(%r13), %rax
	movq	$0, 104(%rsp)
	movq	%rax, 104(%rsp)
	movq	64(%r13), %rax
	movq	$0, 112(%rsp)
	movq	%rax, 112(%rsp)
	movq	72(%r13), %rax
	movq	$0, 120(%rsp)
	movq	%rax, 120(%rsp)
	movq	80(%r13), %rax
	movq	$0, 128(%rsp)
	movq	%rax, 128(%rsp)
	movq	88(%r13), %rax
	movq	$0, 136(%rsp)
	movq	%rax, 136(%rsp)
	movq	96(%r13), %rax
	movq	$0, 144(%rsp)
	movq	%rax, 144(%rsp)
	movq	(%rbp), %rax
	movq	-8(%rax), %rbx
	movl	%ebx, %edi
	callq	push_jit_object
	addq	$-8, (%rbp)
	movq	$0, 120(%rsp)
	movq	%rbx, 120(%rsp)
	movl	$0, gSigInt(%rip)
	cmpl	$1, %ebx
	sete	%al
	movq	$0, 152(%rsp)
	movzbl	%al, %eax
	movq	%rax, 152(%rsp)
	je	.LBB18_19
# BB#16:                                # %entry_condnotend
                                        #   in Loop: Header=BB18_13 Depth=1
	cmpl	$0, 72(%rsp)
	sete	%al
	movq	$0, 160(%rsp)
	movzbl	%al, %eax
	movq	%rax, 160(%rsp)
	jne	.LBB18_18
# BB#17:                                # %entry_condend302
                                        #   in Loop: Header=BB18_13 Depth=1
	testl	%ebx, %ebx
	setg	%al
	movzbl	%al, %eax
	movq	%rax, 160(%rsp)
.LBB18_18:                              # %label_and_endpointzzzzzzzzzzzzzzzzzr
                                        #   in Loop: Header=BB18_13 Depth=1
	movq	%rax, 152(%rsp)
.LBB18_19:                              # %label_or_endpointzzzzzzzzzzzzzzzzzq
                                        #   in Loop: Header=BB18_13 Depth=1
	testq	%rax, %rax
	je	.LBB18_49
# BB#20:                                # %entry_condend307
                                        #   in Loop: Header=BB18_13 Depth=1
	movl	$0, gSigInt(%rip)
	movl	96(%rsp), %ebp
	movl	88(%rsp), %r15d
	movl	112(%rsp), %r8d
	xorl	%r9d, %r9d
	movq	16(%rsp), %rdi          # 8-byte Reload
	movq	%r13, %rsi
	movl	44(%rsp), %edx          # 4-byte Reload
	movq	24(%rsp), %rcx          # 8-byte Reload
	callq	get_field_from_object
	cmpl	$0, 8(%rax)
	movq	224(%rsp), %r14
	je	.LBB18_1
# BB#21:                                # %entry_ifend313
                                        #   in Loop: Header=BB18_13 Depth=1
	movq	(%rax), %r8
	xorl	%r9d, %r9d
	movq	16(%rsp), %rdi          # 8-byte Reload
	movq	%r13, %rsi
	movl	44(%rsp), %edx          # 4-byte Reload
	movq	24(%rsp), %rcx          # 8-byte Reload
	callq	load_element
	cmpl	$0, 8(%rax)
	je	.LBB18_1
# BB#22:                                # %entry_ifend316
                                        #   in Loop: Header=BB18_13 Depth=1
	movq	(%rax), %rbx
	movl	$8276, %esi             # imm = 0x2054
	movq	%r14, %rdi
	callq	get_class_with_load_and_initialize_in_jit
	testq	%rax, %rax
	je	.LBB18_1
# BB#23:                                # %entry_ifend319
                                        #   in Loop: Header=BB18_13 Depth=1
	movq	%r14, %r12
	movq	48(%rsp), %rcx
	movq	32(%rsp), %rdx          # 8-byte Reload
	movq	$0, (%rdx)
	movq	%rcx, (%rdx)
	movq	56(%rsp), %rcx
	movq	$0, 8(%rdx)
	movq	%rcx, 8(%rdx)
	movq	64(%rsp), %rcx
	movq	$0, 16(%rdx)
	movq	%rcx, 16(%rdx)
	movq	72(%rsp), %rcx
	movq	$0, 24(%rdx)
	movq	%rcx, 24(%rdx)
	movq	80(%rsp), %rcx
	movq	$0, 32(%rdx)
	movq	%rcx, 32(%rdx)
	movq	88(%rsp), %rcx
	movq	$0, 40(%rdx)
	movq	%rcx, 40(%rdx)
	movq	96(%rsp), %rcx
	movq	$0, 48(%rdx)
	movq	%rcx, 48(%rdx)
	movq	104(%rsp), %rcx
	movq	$0, 56(%rdx)
	movq	%rcx, 56(%rdx)
	movq	112(%rsp), %rcx
	movq	$0, 64(%rdx)
	movq	%rcx, 64(%rdx)
	movq	120(%rsp), %rcx
	movq	$0, 72(%rdx)
	movq	%rcx, 72(%rdx)
	movq	128(%rsp), %rcx
	movq	$0, 80(%rdx)
	movq	%rcx, 80(%rdx)
	movq	136(%rsp), %rcx
	movq	$0, 88(%rdx)
	movq	%rcx, 88(%rdx)
	movq	144(%rsp), %rcx
	movq	$0, 96(%rdx)
	movq	%rcx, 96(%rdx)
	movq	16(%rsp), %r14          # 8-byte Reload
	movq	(%r14), %rcx
	movq	$0, (%rcx)
	movl	%ebp, %edx
	movq	%rdx, (%rcx)
	movq	(%r14), %rcx
	leaq	8(%rcx), %rdx
	movq	%rdx, (%r14)
	movq	$0, 8(%rcx)
	movl	%r15d, %edx
	movq	%rdx, 8(%rcx)
	movq	(%r14), %rcx
	leaq	8(%rcx), %rdx
	movq	%rdx, (%r14)
	movq	$0, 8(%rcx)
	movl	%ebx, %edx
	movq	%rdx, 8(%rcx)
	addq	$8, (%r14)
	movl	$11, %esi
	movq	%rax, %rdi
	movq	%r13, %rdx
	movl	44(%rsp), %ebp          # 4-byte Reload
	movl	%ebp, %ecx
	movq	%r14, %r8
	movq	24(%rsp), %rbx          # 8-byte Reload
	movq	%rbx, %r9
	callq	call_invoke_method
	cmpl	$1, %eax
	jne	.LBB18_11
# BB#24:                                # %entry_ifend358
                                        #   in Loop: Header=BB18_13 Depth=1
	movq	(%r13), %rax
	movq	$0, 48(%rsp)
	movq	%rax, 48(%rsp)
	movq	8(%r13), %rax
	movq	$0, 56(%rsp)
	movq	%rax, 56(%rsp)
	movq	16(%r13), %rax
	movq	$0, 64(%rsp)
	movq	%rax, 64(%rsp)
	movq	24(%r13), %rax
	movq	$0, 72(%rsp)
	movq	%rax, 72(%rsp)
	movq	32(%r13), %rax
	movq	$0, 80(%rsp)
	movq	%rax, 80(%rsp)
	movq	40(%r13), %rax
	movq	$0, 88(%rsp)
	movq	%rax, 88(%rsp)
	movq	48(%r13), %rax
	movq	$0, 96(%rsp)
	movq	%rax, 96(%rsp)
	movq	56(%r13), %rax
	movq	$0, 104(%rsp)
	movq	%rax, 104(%rsp)
	movq	64(%r13), %rax
	movq	$0, 112(%rsp)
	movq	%rax, 112(%rsp)
	movq	72(%r13), %rax
	movq	$0, 120(%rsp)
	movq	%rax, 120(%rsp)
	movq	80(%r13), %rax
	movq	$0, 128(%rsp)
	movq	%rax, 128(%rsp)
	movq	88(%r13), %rax
	movq	$0, 136(%rsp)
	movq	%rax, 136(%rsp)
	movq	96(%r13), %rax
	movq	$0, 144(%rsp)
	movq	%rax, 144(%rsp)
	movq	(%r14), %rax
	movq	-8(%rax), %r15
	movl	%r15d, %edi
	callq	push_jit_object
	addq	$-8, (%r14)
	movl	$8284, %esi             # imm = 0x205C
	movq	%r12, %rdi
	callq	get_class_with_load_and_initialize_in_jit
	testq	%rax, %rax
	je	.LBB18_1
# BB#25:                                # %entry_ifend393
                                        #   in Loop: Header=BB18_13 Depth=1
	movq	48(%rsp), %rcx
	movq	32(%rsp), %r12          # 8-byte Reload
	movq	$0, (%r12)
	movq	%rcx, (%r12)
	movq	56(%rsp), %rcx
	movq	$0, 8(%r12)
	movq	%rcx, 8(%r12)
	movq	64(%rsp), %rcx
	movq	$0, 16(%r12)
	movq	%rcx, 16(%r12)
	movq	72(%rsp), %rcx
	movq	$0, 24(%r12)
	movq	%rcx, 24(%r12)
	movq	80(%rsp), %rcx
	movq	$0, 32(%r12)
	movq	%rcx, 32(%r12)
	movq	88(%rsp), %rcx
	movq	$0, 40(%r12)
	movq	%rcx, 40(%r12)
	movq	96(%rsp), %rcx
	movq	$0, 48(%r12)
	movq	%rcx, 48(%r12)
	movq	104(%rsp), %rcx
	movq	$0, 56(%r12)
	movq	%rcx, 56(%r12)
	movq	112(%rsp), %rcx
	movq	$0, 64(%r12)
	movq	%rcx, 64(%r12)
	movq	120(%rsp), %rcx
	movq	$0, 72(%r12)
	movq	%rcx, 72(%r12)
	movq	128(%rsp), %rcx
	movq	$0, 80(%r12)
	movq	%rcx, 80(%r12)
	movq	136(%rsp), %rcx
	movq	$0, 88(%r12)
	movq	%rcx, 88(%r12)
	movq	144(%rsp), %rcx
	movq	$0, 96(%r12)
	movq	%rcx, 96(%r12)
	movq	(%r14), %rcx
	movq	$0, (%rcx)
	movq	%r15, (%rcx)
	addq	$8, (%r14)
	movl	$10, %esi
	movq	%rax, %rdi
	movq	%r13, %rdx
	movl	%ebp, %ecx
	movq	%r14, %r8
	movq	%rbx, %r15
	movq	%r15, %r9
	callq	call_invoke_method
	cmpl	$1, %eax
	movq	%r13, %rbx
	jne	.LBB18_26
# BB#27:                                # %entry_ifend426
                                        #   in Loop: Header=BB18_13 Depth=1
	movq	(%rbx), %rax
	movq	$0, 48(%rsp)
	movq	%rax, 48(%rsp)
	movq	8(%rbx), %rax
	movq	$0, 56(%rsp)
	movq	%rax, 56(%rsp)
	movq	16(%rbx), %rax
	movq	$0, 64(%rsp)
	movq	%rax, 64(%rsp)
	movq	24(%rbx), %rax
	movq	$0, 72(%rsp)
	movq	%rax, 72(%rsp)
	movq	32(%rbx), %rax
	movq	$0, 80(%rsp)
	movq	%rax, 80(%rsp)
	movq	40(%rbx), %rax
	movq	$0, 88(%rsp)
	movq	%rax, 88(%rsp)
	movq	48(%rbx), %rax
	movq	$0, 96(%rsp)
	movq	%rax, 96(%rsp)
	movq	56(%rbx), %rax
	movq	$0, 104(%rsp)
	movq	%rax, 104(%rsp)
	movq	64(%rbx), %rax
	movq	$0, 112(%rsp)
	movq	%rax, 112(%rsp)
	movq	72(%rbx), %rax
	movq	$0, 120(%rsp)
	movq	%rax, 120(%rsp)
	movq	80(%rbx), %rax
	movq	$0, 128(%rsp)
	movq	%rax, 128(%rsp)
	movq	88(%rbx), %rax
	movq	$0, 136(%rsp)
	movq	%rax, 136(%rsp)
	movq	96(%rbx), %rax
	movq	$0, 144(%rsp)
	movq	%rax, 144(%rsp)
	movq	(%r14), %rax
	movq	-8(%rax), %r13
	movl	%r13d, %edi
	callq	push_jit_object
	addq	$-8, (%r14)
	movq	%rbx, %r15
	movq	$0, 128(%rsp)
	movq	%r13, 128(%rsp)
	movl	$0, gSigInt(%rip)
	movl	80(%rsp), %ebx
	movl	$8292, %esi             # imm = 0x2064
	movq	224(%rsp), %rdi
	callq	get_class_with_load_and_initialize_in_jit
	testq	%rax, %rax
	je	.LBB18_1
# BB#28:                                # %entry_ifend463
                                        #   in Loop: Header=BB18_13 Depth=1
	movq	48(%rsp), %rcx
	movq	$0, (%r12)
	movq	%rcx, (%r12)
	movq	56(%rsp), %rcx
	movq	$0, 8(%r12)
	movq	%rcx, 8(%r12)
	movq	64(%rsp), %rcx
	movq	$0, 16(%r12)
	movq	%rcx, 16(%r12)
	movq	72(%rsp), %rcx
	movq	$0, 24(%r12)
	movq	%rcx, 24(%r12)
	movq	80(%rsp), %rcx
	movq	$0, 32(%r12)
	movq	%rcx, 32(%r12)
	movq	88(%rsp), %rcx
	movq	$0, 40(%r12)
	movq	%rcx, 40(%r12)
	movq	96(%rsp), %rcx
	movq	$0, 48(%r12)
	movq	%rcx, 48(%r12)
	movq	104(%rsp), %rcx
	movq	$0, 56(%r12)
	movq	%rcx, 56(%r12)
	movq	112(%rsp), %rcx
	movq	$0, 64(%r12)
	movq	%rcx, 64(%r12)
	movq	120(%rsp), %rcx
	movq	$0, 72(%r12)
	movq	%rcx, 72(%r12)
	movq	128(%rsp), %rcx
	movq	$0, 80(%r12)
	movq	%rcx, 80(%r12)
	movq	136(%rsp), %rcx
	movq	$0, 88(%r12)
	movq	%rcx, 88(%r12)
	movq	144(%rsp), %rcx
	movq	$0, 96(%r12)
	movq	%rcx, 96(%r12)
	movq	(%r14), %rcx
	movq	$0, (%rcx)
	movl	%ebx, %edx
	movq	%rdx, (%rcx)
	movq	(%r14), %rcx
	leaq	8(%rcx), %rdx
	movq	%rdx, (%r14)
	movq	$0, 8(%rcx)
	movl	%r13d, %edx
	movq	%rdx, 8(%rcx)
	addq	$8, (%r14)
	movl	$8, %esi
	movq	%rax, %rdi
	movq	%r15, %rdx
	movl	%ebp, %ecx
	movq	%r14, %r8
	movq	24(%rsp), %rbx          # 8-byte Reload
	movq	%rbx, %r9
	callq	call_invoke_method
	cmpl	$1, %eax
	jne	.LBB18_11
# BB#29:                                # %entry_ifend499
                                        #   in Loop: Header=BB18_13 Depth=1
	movq	(%r15), %rax
	movq	$0, 48(%rsp)
	movq	%rax, 48(%rsp)
	movq	8(%r15), %rax
	movq	$0, 56(%rsp)
	movq	%rax, 56(%rsp)
	movq	16(%r15), %rax
	movq	$0, 64(%rsp)
	movq	%rax, 64(%rsp)
	movq	24(%r15), %rax
	movq	$0, 72(%rsp)
	movq	%rax, 72(%rsp)
	movq	32(%r15), %rax
	movq	$0, 80(%rsp)
	movq	%rax, 80(%rsp)
	movq	40(%r15), %rax
	movq	$0, 88(%rsp)
	movq	%rax, 88(%rsp)
	movq	48(%r15), %rax
	movq	$0, 96(%rsp)
	movq	%rax, 96(%rsp)
	movq	56(%r15), %rax
	movq	$0, 104(%rsp)
	movq	%rax, 104(%rsp)
	movq	64(%r15), %rax
	movq	$0, 112(%rsp)
	movq	%rax, 112(%rsp)
	movq	72(%r15), %rax
	movq	$0, 120(%rsp)
	movq	%rax, 120(%rsp)
	movq	80(%r15), %rax
	movq	$0, 128(%rsp)
	movq	%rax, 128(%rsp)
	movq	88(%r15), %rax
	movq	$0, 136(%rsp)
	movq	%rax, 136(%rsp)
	movq	96(%r15), %rax
	movq	$0, 144(%rsp)
	movq	%rax, 144(%rsp)
	movq	(%r14), %rax
	movl	-8(%rax), %edi
	callq	push_jit_object
	addq	$-8, (%r14)
	movq	%r14, %r13
	movl	$0, gSigInt(%rip)
	movl	80(%rsp), %r12d
	movl	64(%rsp), %r14d
	movl	$8300, %esi             # imm = 0x206C
	movq	224(%rsp), %rdi
	callq	get_class_with_load_and_initialize_in_jit
	testq	%rax, %rax
	je	.LBB18_1
# BB#30:                                # %entry_ifend536
                                        #   in Loop: Header=BB18_13 Depth=1
	movq	48(%rsp), %rcx
	movq	32(%rsp), %rdx          # 8-byte Reload
	movq	$0, (%rdx)
	movq	%rcx, (%rdx)
	movq	56(%rsp), %rcx
	movq	$0, 8(%rdx)
	movq	%rcx, 8(%rdx)
	movq	64(%rsp), %rcx
	movq	$0, 16(%rdx)
	movq	%rcx, 16(%rdx)
	movq	72(%rsp), %rcx
	movq	$0, 24(%rdx)
	movq	%rcx, 24(%rdx)
	movq	80(%rsp), %rcx
	movq	$0, 32(%rdx)
	movq	%rcx, 32(%rdx)
	movq	88(%rsp), %rcx
	movq	$0, 40(%rdx)
	movq	%rcx, 40(%rdx)
	movq	96(%rsp), %rcx
	movq	$0, 48(%rdx)
	movq	%rcx, 48(%rdx)
	movq	104(%rsp), %rcx
	movq	$0, 56(%rdx)
	movq	%rcx, 56(%rdx)
	movq	112(%rsp), %rcx
	movq	$0, 64(%rdx)
	movq	%rcx, 64(%rdx)
	movq	120(%rsp), %rcx
	movq	$0, 72(%rdx)
	movq	%rcx, 72(%rdx)
	movq	128(%rsp), %rcx
	movq	$0, 80(%rdx)
	movq	%rcx, 80(%rdx)
	movq	136(%rsp), %rcx
	movq	$0, 88(%rdx)
	movq	%rcx, 88(%rdx)
	movq	144(%rsp), %rcx
	movq	$0, 96(%rdx)
	movq	%rcx, 96(%rdx)
	movq	(%r13), %rcx
	movq	$0, (%rcx)
	movl	%r12d, %edx
	movq	%rdx, (%rcx)
	movq	(%r13), %rcx
	leaq	8(%rcx), %rdx
	movq	%rdx, (%r13)
	movq	$0, 8(%rcx)
	movl	%r14d, %edx
	movq	%r13, %rbx
	movq	%rdx, 8(%rcx)
	addq	$8, (%rbx)
	movl	$8, %esi
	movq	%rax, %rdi
	movq	%r15, %rdx
	movl	%ebp, %r12d
	movl	%r12d, %ecx
	movq	%rbx, %r8
	movq	24(%rsp), %r13          # 8-byte Reload
	movq	%r13, %r9
	callq	call_invoke_method
	cmpl	$1, %eax
	jne	.LBB18_31
# BB#32:                                # %entry_ifend572
                                        #   in Loop: Header=BB18_13 Depth=1
	movq	(%r15), %rax
	movq	$0, 48(%rsp)
	movq	%rax, 48(%rsp)
	movq	8(%r15), %rax
	movq	$0, 56(%rsp)
	movq	%rax, 56(%rsp)
	movq	16(%r15), %rax
	movq	$0, 64(%rsp)
	movq	%rax, 64(%rsp)
	movq	24(%r15), %rax
	movq	$0, 72(%rsp)
	movq	%rax, 72(%rsp)
	movq	32(%r15), %rax
	movq	$0, 80(%rsp)
	movq	%rax, 80(%rsp)
	movq	40(%r15), %rax
	movq	$0, 88(%rsp)
	movq	%rax, 88(%rsp)
	movq	48(%r15), %rax
	movq	$0, 96(%rsp)
	movq	%rax, 96(%rsp)
	movq	56(%r15), %rax
	movq	$0, 104(%rsp)
	movq	%rax, 104(%rsp)
	movq	64(%r15), %rax
	movq	$0, 112(%rsp)
	movq	%rax, 112(%rsp)
	movq	72(%r15), %rax
	movq	$0, 120(%rsp)
	movq	%rax, 120(%rsp)
	movq	80(%r15), %rax
	movq	$0, 128(%rsp)
	movq	%rax, 128(%rsp)
	movq	88(%r15), %rax
	movq	$0, 136(%rsp)
	movq	%rax, 136(%rsp)
	movq	96(%r15), %rax
	movq	$0, 144(%rsp)
	movq	%rax, 144(%rsp)
	movq	(%rbx), %rax
	movl	-8(%rax), %edi
	callq	push_jit_object
	addq	$-8, (%rbx)
	movl	$0, gSigInt(%rip)
	movl	88(%rsp), %r14d
	movl	112(%rsp), %r8d
	movl	$1, %r9d
	movq	%rbx, %rdi
	movq	%r15, %rsi
	movl	%r12d, %edx
	movq	%r13, %rcx
	callq	get_field_from_object
	cmpl	$0, 8(%rax)
	movq	224(%rsp), %rbx
	je	.LBB18_1
# BB#33:                                # %entry_ifend609
                                        #   in Loop: Header=BB18_13 Depth=1
	movq	(%rax), %r8
	xorl	%r9d, %r9d
	movq	16(%rsp), %rdi          # 8-byte Reload
	movq	%r15, %rsi
	movl	44(%rsp), %edx          # 4-byte Reload
	movq	24(%rsp), %rcx          # 8-byte Reload
	callq	load_element
	cmpl	$0, 8(%rax)
	je	.LBB18_1
# BB#34:                                # %entry_ifend613
                                        #   in Loop: Header=BB18_13 Depth=1
	movq	(%rax), %rax
	movl	$0, gSigInt(%rip)
	cmpl	%eax, %r14d
	jne	.LBB18_40
# BB#35:                                # %entry_condend617
                                        #   in Loop: Header=BB18_13 Depth=1
	movl	88(%rsp), %eax
	incl	%eax
	movq	$0, 88(%rsp)
	jmp	.LBB18_36
.LBB18_49:                              # %label_elifzzzzzzzzzzzzzzzzzp1a
                                        #   in Loop: Header=BB18_13 Depth=1
	cmpl	$1, %ebx
	movl	$0, gSigInt(%rip)
	movl	96(%rsp), %eax
	movl	%eax, 4(%rsp)           # 4-byte Spill
	movl	88(%rsp), %eax
	movl	%eax, 8(%rsp)           # 4-byte Spill
	jle	.LBB18_87
# BB#50:                                # %entry_condend857
                                        #   in Loop: Header=BB18_13 Depth=1
	movl	112(%rsp), %r8d
	xorl	%r9d, %r9d
	movq	16(%rsp), %rdi          # 8-byte Reload
	movq	%r13, %rsi
	movl	44(%rsp), %edx          # 4-byte Reload
	movq	24(%rsp), %rcx          # 8-byte Reload
	callq	get_field_from_object
	cmpl	$0, 8(%rax)
	movq	224(%rsp), %rbp
	je	.LBB18_1
# BB#51:                                # %entry_ifend863
                                        #   in Loop: Header=BB18_13 Depth=1
	movq	(%rax), %r8
	xorl	%r9d, %r9d
	movq	16(%rsp), %rdi          # 8-byte Reload
	movq	%r13, %rsi
	movl	44(%rsp), %edx          # 4-byte Reload
	movq	24(%rsp), %rcx          # 8-byte Reload
	callq	load_element
	cmpl	$0, 8(%rax)
	je	.LBB18_1
# BB#52:                                # %entry_ifend867
                                        #   in Loop: Header=BB18_13 Depth=1
	movq	(%rax), %rbx
	movl	$8720, %esi             # imm = 0x2210
	movq	%rbp, %rdi
	callq	get_class_with_load_and_initialize_in_jit
	testq	%rax, %rax
	je	.LBB18_1
# BB#53:                                # %entry_ifend870
                                        #   in Loop: Header=BB18_13 Depth=1
	movq	%rbp, %r12
	movq	48(%rsp), %rcx
	movq	32(%rsp), %r15          # 8-byte Reload
	movq	$0, (%r15)
	movq	%rcx, (%r15)
	movq	56(%rsp), %rcx
	movq	$0, 8(%r15)
	movq	%rcx, 8(%r15)
	movq	64(%rsp), %rcx
	movq	$0, 16(%r15)
	movq	%rcx, 16(%r15)
	movq	72(%rsp), %rcx
	movq	$0, 24(%r15)
	movq	%rcx, 24(%r15)
	movq	80(%rsp), %rcx
	movq	$0, 32(%r15)
	movq	%rcx, 32(%r15)
	movq	88(%rsp), %rcx
	movq	$0, 40(%r15)
	movq	%rcx, 40(%r15)
	movq	96(%rsp), %rcx
	movq	$0, 48(%r15)
	movq	%rcx, 48(%r15)
	movq	104(%rsp), %rcx
	movq	$0, 56(%r15)
	movq	%rcx, 56(%r15)
	movq	112(%rsp), %rcx
	movq	$0, 64(%r15)
	movq	%rcx, 64(%r15)
	movq	120(%rsp), %rcx
	movq	$0, 72(%r15)
	movq	%rcx, 72(%r15)
	movq	128(%rsp), %rcx
	movq	$0, 80(%r15)
	movq	%rcx, 80(%r15)
	movq	136(%rsp), %rcx
	movq	$0, 88(%r15)
	movq	%rcx, 88(%r15)
	movq	144(%rsp), %rcx
	movq	$0, 96(%r15)
	movq	%rcx, 96(%r15)
	movq	16(%rsp), %r14          # 8-byte Reload
	movq	(%r14), %rcx
	movq	$0, (%rcx)
	movl	4(%rsp), %edx           # 4-byte Reload
	movq	%rdx, (%rcx)
	movq	(%r14), %rcx
	leaq	8(%rcx), %rdx
	movq	%rdx, (%r14)
	movq	$0, 8(%rcx)
	movl	8(%rsp), %edx           # 4-byte Reload
	movq	%rdx, 8(%rcx)
	movq	(%r14), %rcx
	leaq	8(%rcx), %rdx
	movq	%rdx, (%r14)
	movq	$0, 8(%rcx)
	movl	%ebx, %edx
	movq	%rdx, 8(%rcx)
	addq	$8, (%r14)
	movl	$11, %esi
	movq	%rax, %rdi
	movq	%r13, %rdx
	movl	44(%rsp), %ecx          # 4-byte Reload
	movq	%r14, %r8
	movq	24(%rsp), %rbx          # 8-byte Reload
	movq	%rbx, %r9
	callq	call_invoke_method
	cmpl	$1, %eax
	jne	.LBB18_11
# BB#54:                                # %entry_ifend909
                                        #   in Loop: Header=BB18_13 Depth=1
	movq	(%r13), %rax
	movq	$0, 48(%rsp)
	movq	%rax, 48(%rsp)
	movq	8(%r13), %rax
	movq	$0, 56(%rsp)
	movq	%rax, 56(%rsp)
	movq	16(%r13), %rax
	movq	$0, 64(%rsp)
	movq	%rax, 64(%rsp)
	movq	24(%r13), %rax
	movq	$0, 72(%rsp)
	movq	%rax, 72(%rsp)
	movq	32(%r13), %rax
	movq	$0, 80(%rsp)
	movq	%rax, 80(%rsp)
	movq	40(%r13), %rax
	movq	$0, 88(%rsp)
	movq	%rax, 88(%rsp)
	movq	48(%r13), %rax
	movq	$0, 96(%rsp)
	movq	%rax, 96(%rsp)
	movq	56(%r13), %rax
	movq	$0, 104(%rsp)
	movq	%rax, 104(%rsp)
	movq	64(%r13), %rax
	movq	$0, 112(%rsp)
	movq	%rax, 112(%rsp)
	movq	72(%r13), %rax
	movq	$0, 120(%rsp)
	movq	%rax, 120(%rsp)
	movq	80(%r13), %rax
	movq	$0, 128(%rsp)
	movq	%rax, 128(%rsp)
	movq	88(%r13), %rax
	movq	$0, 136(%rsp)
	movq	%rax, 136(%rsp)
	movq	96(%r13), %rax
	movq	$0, 144(%rsp)
	movq	%rax, 144(%rsp)
	movq	(%r14), %rax
	movq	%r13, %rbp
	movq	-8(%rax), %r13
	movl	%r13d, %edi
	callq	push_jit_object
	addq	$-8, (%r14)
	movl	$8728, %esi             # imm = 0x2218
	movq	%r12, %rdi
	callq	get_class_with_load_and_initialize_in_jit
	testq	%rax, %rax
	je	.LBB18_1
# BB#55:                                # %entry_ifend944
                                        #   in Loop: Header=BB18_13 Depth=1
	movq	48(%rsp), %rcx
	movq	$0, (%r15)
	movq	%rcx, (%r15)
	movq	56(%rsp), %rcx
	movq	$0, 8(%r15)
	movq	%rcx, 8(%r15)
	movq	64(%rsp), %rcx
	movq	$0, 16(%r15)
	movq	%rcx, 16(%r15)
	movq	72(%rsp), %rcx
	movq	$0, 24(%r15)
	movq	%rcx, 24(%r15)
	movq	80(%rsp), %rcx
	movq	$0, 32(%r15)
	movq	%rcx, 32(%r15)
	movq	88(%rsp), %rcx
	movq	$0, 40(%r15)
	movq	%rcx, 40(%r15)
	movq	96(%rsp), %rcx
	movq	$0, 48(%r15)
	movq	%rcx, 48(%r15)
	movq	104(%rsp), %rcx
	movq	$0, 56(%r15)
	movq	%rcx, 56(%r15)
	movq	112(%rsp), %rcx
	movq	$0, 64(%r15)
	movq	%rcx, 64(%r15)
	movq	120(%rsp), %rcx
	movq	$0, 72(%r15)
	movq	%rcx, 72(%r15)
	movq	128(%rsp), %rcx
	movq	$0, 80(%r15)
	movq	%rcx, 80(%r15)
	movq	136(%rsp), %rcx
	movq	$0, 88(%r15)
	movq	%rcx, 88(%r15)
	movq	144(%rsp), %rcx
	movq	$0, 96(%r15)
	movq	%rcx, 96(%r15)
	movq	(%r14), %rcx
	movq	$0, (%rcx)
	movq	%r13, (%rcx)
	movq	%r14, %r13
	addq	$8, (%r13)
	movl	$10, %esi
	movq	%rax, %rdi
	movq	%rbp, %rdx
	movl	44(%rsp), %ecx          # 4-byte Reload
	movq	%r13, %r8
	movq	%rbx, %r9
	callq	call_invoke_method
	cmpl	$1, %eax
	jne	.LBB18_11
# BB#56:                                # %entry_ifend977
                                        #   in Loop: Header=BB18_13 Depth=1
	movq	%rbp, %r14
	movq	(%r14), %rax
	movq	$0, 48(%rsp)
	movq	%rax, 48(%rsp)
	movq	8(%r14), %rax
	movq	$0, 56(%rsp)
	movq	%rax, 56(%rsp)
	movq	16(%r14), %rax
	movq	$0, 64(%rsp)
	movq	%rax, 64(%rsp)
	movq	24(%r14), %rax
	movq	$0, 72(%rsp)
	movq	%rax, 72(%rsp)
	movq	32(%r14), %rax
	movq	$0, 80(%rsp)
	movq	%rax, 80(%rsp)
	movq	40(%r14), %rax
	movq	$0, 88(%rsp)
	movq	%rax, 88(%rsp)
	movq	48(%r14), %rax
	movq	$0, 96(%rsp)
	movq	%rax, 96(%rsp)
	movq	56(%r14), %rax
	movq	$0, 104(%rsp)
	movq	%rax, 104(%rsp)
	movq	64(%r14), %rax
	movq	$0, 112(%rsp)
	movq	%rax, 112(%rsp)
	movq	72(%r14), %rax
	movq	$0, 120(%rsp)
	movq	%rax, 120(%rsp)
	movq	80(%r14), %rax
	movq	$0, 128(%rsp)
	movq	%rax, 128(%rsp)
	movq	88(%r14), %rax
	movq	$0, 136(%rsp)
	movq	%rax, 136(%rsp)
	movq	96(%r14), %rax
	movq	$0, 144(%rsp)
	movq	%rax, 144(%rsp)
	movq	(%r13), %rax
	movq	-8(%rax), %rbp
	movl	%ebp, %edi
	callq	push_jit_object
	addq	$-8, (%r13)
	movq	$0, 128(%rsp)
	movq	%rbp, 128(%rsp)
	movl	$0, gSigInt(%rip)
	movl	80(%rsp), %ebx
	movl	$8736, %esi             # imm = 0x2220
	movq	%r12, %rdi
	callq	get_class_with_load_and_initialize_in_jit
	testq	%rax, %rax
	je	.LBB18_1
# BB#57:                                # %entry_ifend1014
                                        #   in Loop: Header=BB18_13 Depth=1
	movq	48(%rsp), %rcx
	movq	$0, (%r15)
	movq	%rcx, (%r15)
	movq	56(%rsp), %rcx
	movq	$0, 8(%r15)
	movq	%rcx, 8(%r15)
	movq	64(%rsp), %rcx
	movq	$0, 16(%r15)
	movq	%rcx, 16(%r15)
	movq	72(%rsp), %rcx
	movq	$0, 24(%r15)
	movq	%rcx, 24(%r15)
	movq	80(%rsp), %rcx
	movq	$0, 32(%r15)
	movq	%rcx, 32(%r15)
	movq	88(%rsp), %rcx
	movq	$0, 40(%r15)
	movq	%rcx, 40(%r15)
	movq	96(%rsp), %rcx
	movq	$0, 48(%r15)
	movq	%rcx, 48(%r15)
	movq	104(%rsp), %rcx
	movq	$0, 56(%r15)
	movq	%rcx, 56(%r15)
	movq	112(%rsp), %rcx
	movq	$0, 64(%r15)
	movq	%rcx, 64(%r15)
	movq	120(%rsp), %rcx
	movq	$0, 72(%r15)
	movq	%rcx, 72(%r15)
	movq	128(%rsp), %rcx
	movq	$0, 80(%r15)
	movq	%rcx, 80(%r15)
	movq	136(%rsp), %rcx
	movq	$0, 88(%r15)
	movq	%rcx, 88(%r15)
	movq	144(%rsp), %rcx
	movq	$0, 96(%r15)
	movq	%rcx, 96(%r15)
	movq	(%r13), %rcx
	movq	$0, (%rcx)
	movl	%ebx, %edx
	movq	%rdx, (%rcx)
	movq	(%r13), %rcx
	leaq	8(%rcx), %rdx
	movq	%rdx, (%r13)
	movq	$0, 8(%rcx)
	movl	%ebp, %edx
	movq	%rdx, 8(%rcx)
	addq	$8, (%r13)
	movl	$8, %esi
	movq	%rax, %rdi
	movq	%r14, %rdx
	movl	44(%rsp), %ebp          # 4-byte Reload
	movl	%ebp, %ecx
	movq	%r13, %r8
	movq	24(%rsp), %rbx          # 8-byte Reload
	movq	%rbx, %r9
	callq	call_invoke_method
	cmpl	$1, %eax
	jne	.LBB18_11
# BB#58:                                # %entry_ifend1050
                                        #   in Loop: Header=BB18_13 Depth=1
	movq	(%r14), %rax
	movq	$0, 48(%rsp)
	movq	%rax, 48(%rsp)
	movq	8(%r14), %rax
	movq	$0, 56(%rsp)
	movq	%rax, 56(%rsp)
	movq	16(%r14), %rax
	movq	$0, 64(%rsp)
	movq	%rax, 64(%rsp)
	movq	24(%r14), %rax
	movq	$0, 72(%rsp)
	movq	%rax, 72(%rsp)
	movq	32(%r14), %rax
	movq	$0, 80(%rsp)
	movq	%rax, 80(%rsp)
	movq	40(%r14), %rax
	movq	$0, 88(%rsp)
	movq	%rax, 88(%rsp)
	movq	48(%r14), %rax
	movq	$0, 96(%rsp)
	movq	%rax, 96(%rsp)
	movq	56(%r14), %rax
	movq	$0, 104(%rsp)
	movq	%rax, 104(%rsp)
	movq	64(%r14), %rax
	movq	$0, 112(%rsp)
	movq	%rax, 112(%rsp)
	movq	72(%r14), %rax
	movq	$0, 120(%rsp)
	movq	%rax, 120(%rsp)
	movq	80(%r14), %rax
	movq	$0, 128(%rsp)
	movq	%rax, 128(%rsp)
	movq	88(%r14), %rax
	movq	$0, 136(%rsp)
	movq	%rax, 136(%rsp)
	movq	96(%r14), %rax
	movq	$0, 144(%rsp)
	movq	%rax, 144(%rsp)
	movq	(%r13), %rax
	movl	-8(%rax), %edi
	callq	push_jit_object
	addq	$-8, (%r13)
	movl	$0, gSigInt(%rip)
	movl	80(%rsp), %r12d
	movl	64(%rsp), %ebx
	movl	$8744, %esi             # imm = 0x2228
	movq	224(%rsp), %rdi
	callq	get_class_with_load_and_initialize_in_jit
	testq	%rax, %rax
	je	.LBB18_1
# BB#59:                                # %entry_ifend1087
                                        #   in Loop: Header=BB18_13 Depth=1
	movq	48(%rsp), %rcx
	movq	$0, (%r15)
	movq	%rcx, (%r15)
	movq	56(%rsp), %rcx
	movq	$0, 8(%r15)
	movq	%rcx, 8(%r15)
	movq	64(%rsp), %rcx
	movq	$0, 16(%r15)
	movq	%rcx, 16(%r15)
	movq	72(%rsp), %rcx
	movq	$0, 24(%r15)
	movq	%rcx, 24(%r15)
	movq	80(%rsp), %rcx
	movq	$0, 32(%r15)
	movq	%rcx, 32(%r15)
	movq	88(%rsp), %rcx
	movq	$0, 40(%r15)
	movq	%rcx, 40(%r15)
	movq	96(%rsp), %rcx
	movq	$0, 48(%r15)
	movq	%rcx, 48(%r15)
	movq	104(%rsp), %rcx
	movq	$0, 56(%r15)
	movq	%rcx, 56(%r15)
	movq	112(%rsp), %rcx
	movq	$0, 64(%r15)
	movq	%rcx, 64(%r15)
	movq	120(%rsp), %rcx
	movq	$0, 72(%r15)
	movq	%rcx, 72(%r15)
	movq	128(%rsp), %rcx
	movq	$0, 80(%r15)
	movq	%rcx, 80(%r15)
	movq	136(%rsp), %rcx
	movq	$0, 88(%r15)
	movq	%rcx, 88(%r15)
	movq	144(%rsp), %rcx
	movq	$0, 96(%r15)
	movq	%rcx, 96(%r15)
	movq	(%r13), %rcx
	movq	$0, (%rcx)
	movl	%r12d, %edx
	movq	%rdx, (%rcx)
	movq	(%r13), %rcx
	leaq	8(%rcx), %rdx
	movq	%rdx, (%r13)
	movq	$0, 8(%rcx)
	movl	%ebx, %edx
	movq	%r13, %rbx
	movq	%rdx, 8(%rcx)
	addq	$8, (%rbx)
	movl	$8, %esi
	movq	%rax, %rdi
	movq	%r14, %rdx
	movl	%ebp, %r15d
	movl	%r15d, %ecx
	movq	%rbx, %r8
	movq	24(%rsp), %r13          # 8-byte Reload
	movq	%r13, %r9
	callq	call_invoke_method
	cmpl	$1, %eax
	jne	.LBB18_31
# BB#60:                                # %entry_ifend1123
                                        #   in Loop: Header=BB18_13 Depth=1
	movq	(%r14), %rax
	movq	$0, 48(%rsp)
	movq	%rax, 48(%rsp)
	movq	8(%r14), %rax
	movq	$0, 56(%rsp)
	movq	%rax, 56(%rsp)
	movq	16(%r14), %rax
	movq	$0, 64(%rsp)
	movq	%rax, 64(%rsp)
	movq	24(%r14), %rax
	movq	$0, 72(%rsp)
	movq	%rax, 72(%rsp)
	movq	32(%r14), %rax
	movq	$0, 80(%rsp)
	movq	%rax, 80(%rsp)
	movq	40(%r14), %rax
	movq	$0, 88(%rsp)
	movq	%rax, 88(%rsp)
	movq	48(%r14), %rax
	movq	$0, 96(%rsp)
	movq	%rax, 96(%rsp)
	movq	56(%r14), %rax
	movq	$0, 104(%rsp)
	movq	%rax, 104(%rsp)
	movq	64(%r14), %rax
	movq	$0, 112(%rsp)
	movq	%rax, 112(%rsp)
	movq	72(%r14), %rax
	movq	$0, 120(%rsp)
	movq	%rax, 120(%rsp)
	movq	80(%r14), %rax
	movq	$0, 128(%rsp)
	movq	%rax, 128(%rsp)
	movq	88(%r14), %rax
	movq	$0, 136(%rsp)
	movq	%rax, 136(%rsp)
	movq	96(%r14), %rax
	movq	$0, 144(%rsp)
	movq	%rax, 144(%rsp)
	movq	(%rbx), %rax
	movl	-8(%rax), %edi
	callq	push_jit_object
	addq	$-8, (%rbx)
	movl	$0, gSigInt(%rip)
	movq	%r14, %rbp
	movl	88(%rsp), %r14d
	movl	112(%rsp), %r8d
	movl	$1, %r9d
	movq	%rbx, %rdi
	movq	%rbp, %rsi
	movl	%r15d, %edx
	movl	%r15d, %r12d
	movq	%r13, %rcx
	callq	get_field_from_object
	cmpl	$0, 8(%rax)
	je	.LBB18_1
# BB#61:                                # %entry_ifend1160
                                        #   in Loop: Header=BB18_13 Depth=1
	movq	(%rax), %r8
	xorl	%r9d, %r9d
	movq	16(%rsp), %rdi          # 8-byte Reload
	movq	%rbp, %rsi
	movl	%r12d, %edx
	movq	%r13, %rcx
	callq	load_element
	cmpl	$0, 8(%rax)
	je	.LBB18_1
# BB#62:                                # %entry_ifend1164
                                        #   in Loop: Header=BB18_13 Depth=1
	movq	%rbp, %r15
	movq	(%rax), %rax
	movl	$0, gSigInt(%rip)
	cmpl	%eax, %r14d
	jne	.LBB18_77
# BB#63:                                # %entry_condend1168
                                        #   in Loop: Header=BB18_13 Depth=1
	movl	88(%rsp), %eax
	incl	%eax
	movq	$0, 88(%rsp)
	jmp	.LBB18_64
.LBB18_40:                              # %label_elsezzzzzzzzzzzzzzzzzs
                                        #   in Loop: Header=BB18_13 Depth=1
	movl	112(%rsp), %r8d
	movl	$1, %r9d
	movq	16(%rsp), %rdi          # 8-byte Reload
	movq	%r15, %rsi
	movl	44(%rsp), %edx          # 4-byte Reload
	movq	24(%rsp), %rcx          # 8-byte Reload
	callq	get_field_from_object
	cmpl	$0, 8(%rax)
	je	.LBB18_1
# BB#41:                                # %entry_ifend623
                                        #   in Loop: Header=BB18_13 Depth=1
	movq	(%rax), %r8
	xorl	%r9d, %r9d
	movq	16(%rsp), %rdi          # 8-byte Reload
	movq	%r15, %rsi
	movl	44(%rsp), %edx          # 4-byte Reload
	movq	24(%rsp), %rcx          # 8-byte Reload
	callq	load_element
	cmpl	$0, 8(%rax)
	je	.LBB18_1
# BB#42:                                # %entry_ifend627
                                        #   in Loop: Header=BB18_13 Depth=1
	movq	(%rax), %rax
	movq	$0, 88(%rsp)
	movl	%eax, %eax
.LBB18_36:                              # %label_if_endzzzzzzzzzzzzzzzzzs
                                        #   in Loop: Header=BB18_13 Depth=1
	movq	%rax, 88(%rsp)
	movl	$0, gSigInt(%rip)
	movl	56(%rsp), %edi
	callq	get_regex_global
	testl	%eax, %eax
	movq	%rbx, %rbp
	jne	.LBB18_13
	jmp	.LBB18_37
.LBB18_77:                              # %label_elsezzzzzzzzzzzzzzzzzu
                                        #   in Loop: Header=BB18_13 Depth=1
	movl	112(%rsp), %r8d
	movl	$1, %r9d
	movq	16(%rsp), %rdi          # 8-byte Reload
	movq	%r15, %rsi
	movl	%r12d, %edx
	movq	%r13, %rcx
	callq	get_field_from_object
	cmpl	$0, 8(%rax)
	je	.LBB18_1
# BB#78:                                # %entry_ifend1176
                                        #   in Loop: Header=BB18_13 Depth=1
	movq	(%rax), %r8
	xorl	%r9d, %r9d
	movq	16(%rsp), %rdi          # 8-byte Reload
	movq	%r15, %rsi
	movl	%r12d, %edx
	movq	%r13, %rcx
	callq	load_element
	cmpl	$0, 8(%rax)
	je	.LBB18_1
# BB#79:                                # %entry_ifend1180
                                        #   in Loop: Header=BB18_13 Depth=1
	movq	(%rax), %rax
	movq	$0, 88(%rsp)
	movl	%eax, %eax
.LBB18_64:                              # %label_if_endzzzzzzzzzzzzzzzzzu
                                        #   in Loop: Header=BB18_13 Depth=1
	movq	%rax, 88(%rsp)
	movl	%r12d, %ebp
	movl	$0, gSigInt(%rip)
	movq	$0, 136(%rsp)
	movq	$1, 136(%rsp)
	movl	$1, %eax
	movq	16(%rsp), %rbx          # 8-byte Reload
	jmp	.LBB18_65
.LBB18_76:                              # %entry_ifend1388
                                        #   in Loop: Header=BB18_65 Depth=2
	movq	(%r12), %rax
	movq	$0, 48(%rsp)
	movq	%rax, 48(%rsp)
	movq	8(%r12), %rax
	movq	$0, 56(%rsp)
	movq	%rax, 56(%rsp)
	movq	16(%r12), %rax
	movq	$0, 64(%rsp)
	movq	%rax, 64(%rsp)
	movq	24(%r12), %rax
	movq	$0, 72(%rsp)
	movq	%rax, 72(%rsp)
	movq	32(%r12), %rax
	movq	$0, 80(%rsp)
	movq	%rax, 80(%rsp)
	movq	40(%r12), %rax
	movq	$0, 88(%rsp)
	movq	%rax, 88(%rsp)
	movq	48(%r12), %rax
	movq	$0, 96(%rsp)
	movq	%rax, 96(%rsp)
	movq	56(%r12), %rax
	movq	$0, 104(%rsp)
	movq	%rax, 104(%rsp)
	movq	64(%r12), %rax
	movq	$0, 112(%rsp)
	movq	%rax, 112(%rsp)
	movq	72(%r12), %rax
	movq	$0, 120(%rsp)
	movq	%rax, 120(%rsp)
	movq	80(%r12), %rax
	movq	$0, 128(%rsp)
	movq	%rax, 128(%rsp)
	movq	88(%r12), %rax
	movq	$0, 136(%rsp)
	movq	%rax, 136(%rsp)
	movq	96(%r12), %rax
	movq	%r12, %r15
	movq	$0, 144(%rsp)
	movq	%rax, 144(%rsp)
	movq	(%rbx), %rax
	movl	-8(%rax), %edi
	callq	push_jit_object
	addq	$-8, (%rbx)
	movl	136(%rsp), %eax
	incl	%eax
	movq	$0, 136(%rsp)
	movq	%rax, 136(%rsp)
.LBB18_65:                              # %for_start_pointzzzzzzzzzzzzzzzzzv
                                        #   Parent Loop BB18_13 Depth=1
                                        # =>  This Inner Loop Header: Depth=2
	movl	120(%rsp), %ecx
	movl	$0, gSigInt(%rip)
	cmpl	%ecx, %eax
	jge	.LBB18_80
# BB#66:                                # %entry_condend1186
                                        #   in Loop: Header=BB18_65 Depth=2
	movl	96(%rsp), %r12d
	movl	112(%rsp), %r8d
	xorl	%r9d, %r9d
	movq	%rbx, %rdi
	movq	%r15, %rsi
	movl	%ebp, %edx
	movq	%r13, %rcx
	callq	get_field_from_object
	cmpl	$0, 8(%rax)
	movq	224(%rsp), %rbp
	je	.LBB18_1
# BB#67:                                # %entry_ifend1191
                                        #   in Loop: Header=BB18_65 Depth=2
	movq	(%rax), %r8
	movl	136(%rsp), %r9d
	movq	%rbx, %rdi
	movq	%r15, %rsi
	movl	44(%rsp), %edx          # 4-byte Reload
	movq	%r13, %rcx
	callq	load_element
	cmpl	$0, 8(%rax)
	je	.LBB18_1
# BB#68:                                # %entry_ifend1196
                                        #   in Loop: Header=BB18_65 Depth=2
	movq	(%rax), %r14
	movl	112(%rsp), %r8d
	movl	$1, %r9d
	movq	%rbx, %rdi
	movq	%r15, %rsi
	movl	44(%rsp), %edx          # 4-byte Reload
	movq	%r13, %rcx
	callq	get_field_from_object
	cmpl	$0, 8(%rax)
	je	.LBB18_1
# BB#69:                                # %entry_ifend1200
                                        #   in Loop: Header=BB18_65 Depth=2
	movq	(%rax), %r8
	movl	136(%rsp), %r9d
	movq	%rbx, %rdi
	movq	%r15, %rsi
	movl	44(%rsp), %edx          # 4-byte Reload
	movq	%r13, %rcx
	callq	load_element
	cmpl	$0, 8(%rax)
	je	.LBB18_1
# BB#70:                                # %entry_ifend1205
                                        #   in Loop: Header=BB18_65 Depth=2
	movq	(%rax), %rax
	movq	%rax, 8(%rsp)           # 8-byte Spill
	movl	$8980, %esi             # imm = 0x2314
	movq	%rbp, %rdi
	callq	get_class_with_load_and_initialize_in_jit
	testq	%rax, %rax
	je	.LBB18_1
# BB#71:                                # %entry_ifend1208
                                        #   in Loop: Header=BB18_65 Depth=2
	movl	%r12d, %esi
	movq	%rbp, %r12
	movq	48(%rsp), %rcx
	movq	32(%rsp), %rdx          # 8-byte Reload
	movq	$0, (%rdx)
	movq	%rcx, (%rdx)
	movq	56(%rsp), %rcx
	movq	$0, 8(%rdx)
	movq	%rcx, 8(%rdx)
	movq	64(%rsp), %rcx
	movq	$0, 16(%rdx)
	movq	%rcx, 16(%rdx)
	movq	72(%rsp), %rcx
	movq	$0, 24(%rdx)
	movq	%rcx, 24(%rdx)
	movq	80(%rsp), %rcx
	movq	$0, 32(%rdx)
	movq	%rcx, 32(%rdx)
	movq	88(%rsp), %rcx
	movq	$0, 40(%rdx)
	movq	%rcx, 40(%rdx)
	movq	96(%rsp), %rcx
	movq	$0, 48(%rdx)
	movq	%rcx, 48(%rdx)
	movq	104(%rsp), %rcx
	movq	$0, 56(%rdx)
	movq	%rcx, 56(%rdx)
	movq	112(%rsp), %rcx
	movq	$0, 64(%rdx)
	movq	%rcx, 64(%rdx)
	movq	120(%rsp), %rcx
	movq	$0, 72(%rdx)
	movq	%rcx, 72(%rdx)
	movq	128(%rsp), %rcx
	movq	$0, 80(%rdx)
	movq	%rcx, 80(%rdx)
	movq	136(%rsp), %rcx
	movq	$0, 88(%rdx)
	movq	%rcx, 88(%rdx)
	movq	144(%rsp), %rcx
	movq	$0, 96(%rdx)
	movq	%rcx, 96(%rdx)
	movq	%rbx, %rbp
	movq	(%rbp), %rcx
	movq	$0, (%rcx)
	movl	%esi, %edx
	movq	%rdx, (%rcx)
	movq	(%rbp), %rcx
	leaq	8(%rcx), %rdx
	movq	%rdx, (%rbp)
	movq	$0, 8(%rcx)
	movl	%r14d, %edx
	movq	%rdx, 8(%rcx)
	movq	(%rbp), %rcx
	leaq	8(%rcx), %rdx
	movq	%rdx, (%rbp)
	movq	$0, 8(%rcx)
	movq	8(%rsp), %rdx           # 8-byte Reload
	movl	%edx, %edx
	movq	%rdx, 8(%rcx)
	addq	$8, (%rbp)
	movl	$11, %esi
	movq	%rax, %rdi
	movq	%r15, %rdx
	movl	44(%rsp), %ecx          # 4-byte Reload
	movq	%rbp, %r8
	movq	%r13, %r9
	callq	call_invoke_method
	cmpl	$1, %eax
	jne	.LBB18_31
# BB#72:                                # %entry_ifend1247
                                        #   in Loop: Header=BB18_65 Depth=2
	movq	%r13, %rbx
	movq	(%r15), %rax
	movq	$0, 48(%rsp)
	movq	%rax, 48(%rsp)
	movq	8(%r15), %rax
	movq	$0, 56(%rsp)
	movq	%rax, 56(%rsp)
	movq	16(%r15), %rax
	movq	$0, 64(%rsp)
	movq	%rax, 64(%rsp)
	movq	24(%r15), %rax
	movq	$0, 72(%rsp)
	movq	%rax, 72(%rsp)
	movq	32(%r15), %rax
	movq	$0, 80(%rsp)
	movq	%rax, 80(%rsp)
	movq	40(%r15), %rax
	movq	$0, 88(%rsp)
	movq	%rax, 88(%rsp)
	movq	48(%r15), %rax
	movq	$0, 96(%rsp)
	movq	%rax, 96(%rsp)
	movq	56(%r15), %rax
	movq	$0, 104(%rsp)
	movq	%rax, 104(%rsp)
	movq	64(%r15), %rax
	movq	$0, 112(%rsp)
	movq	%rax, 112(%rsp)
	movq	72(%r15), %rax
	movq	$0, 120(%rsp)
	movq	%rax, 120(%rsp)
	movq	80(%r15), %rax
	movq	$0, 128(%rsp)
	movq	%rax, 128(%rsp)
	movq	88(%r15), %rax
	movq	$0, 136(%rsp)
	movq	%rax, 136(%rsp)
	movq	96(%r15), %rax
	movq	$0, 144(%rsp)
	movq	%rax, 144(%rsp)
	movq	(%rbp), %rax
	movq	-8(%rax), %r13
	movl	%r13d, %edi
	callq	push_jit_object
	addq	$-8, (%rbp)
	movl	$8988, %esi             # imm = 0x231C
	movq	%r12, %rdi
	callq	get_class_with_load_and_initialize_in_jit
	testq	%rax, %rax
	movq	%r15, %r12
	je	.LBB18_1
# BB#73:                                # %entry_ifend1282
                                        #   in Loop: Header=BB18_65 Depth=2
	movq	48(%rsp), %rcx
	movq	32(%rsp), %rdx          # 8-byte Reload
	movq	$0, (%rdx)
	movq	%rcx, (%rdx)
	movq	56(%rsp), %rcx
	movq	$0, 8(%rdx)
	movq	%rcx, 8(%rdx)
	movq	64(%rsp), %rcx
	movq	$0, 16(%rdx)
	movq	%rcx, 16(%rdx)
	movq	72(%rsp), %rcx
	movq	$0, 24(%rdx)
	movq	%rcx, 24(%rdx)
	movq	80(%rsp), %rcx
	movq	$0, 32(%rdx)
	movq	%rcx, 32(%rdx)
	movq	88(%rsp), %rcx
	movq	$0, 40(%rdx)
	movq	%rcx, 40(%rdx)
	movq	96(%rsp), %rcx
	movq	$0, 48(%rdx)
	movq	%rcx, 48(%rdx)
	movq	104(%rsp), %rcx
	movq	$0, 56(%rdx)
	movq	%rcx, 56(%rdx)
	movq	112(%rsp), %rcx
	movq	$0, 64(%rdx)
	movq	%rcx, 64(%rdx)
	movq	120(%rsp), %rcx
	movq	$0, 72(%rdx)
	movq	%rcx, 72(%rdx)
	movq	128(%rsp), %rcx
	movq	$0, 80(%rdx)
	movq	%rcx, 80(%rdx)
	movq	136(%rsp), %rcx
	movq	$0, 88(%rdx)
	movq	%rcx, 88(%rdx)
	movq	144(%rsp), %rcx
	movq	$0, 96(%rdx)
	movq	%rcx, 96(%rdx)
	movq	%rdx, %r15
	movq	(%rbp), %rcx
	movq	$0, (%rcx)
	movq	%r13, (%rcx)
	movq	%rbp, %r14
	addq	$8, (%r14)
	movl	$10, %esi
	movq	%rax, %rdi
	movq	%r12, %rdx
	movl	44(%rsp), %ebp          # 4-byte Reload
	movl	%ebp, %ecx
	movq	%r14, %r8
	movq	%rbx, %r9
	callq	call_invoke_method
	cmpl	$1, %eax
	jne	.LBB18_11
# BB#74:                                # %entry_ifend1315
                                        #   in Loop: Header=BB18_65 Depth=2
	movq	(%r12), %rax
	movq	$0, 48(%rsp)
	movq	%rax, 48(%rsp)
	movq	8(%r12), %rax
	movq	$0, 56(%rsp)
	movq	%rax, 56(%rsp)
	movq	16(%r12), %rax
	movq	$0, 64(%rsp)
	movq	%rax, 64(%rsp)
	movq	24(%r12), %rax
	movq	$0, 72(%rsp)
	movq	%rax, 72(%rsp)
	movq	32(%r12), %rax
	movq	$0, 80(%rsp)
	movq	%rax, 80(%rsp)
	movq	40(%r12), %rax
	movq	$0, 88(%rsp)
	movq	%rax, 88(%rsp)
	movq	48(%r12), %rax
	movq	$0, 96(%rsp)
	movq	%rax, 96(%rsp)
	movq	56(%r12), %rax
	movq	$0, 104(%rsp)
	movq	%rax, 104(%rsp)
	movq	64(%r12), %rax
	movq	$0, 112(%rsp)
	movq	%rax, 112(%rsp)
	movq	72(%r12), %rax
	movq	$0, 120(%rsp)
	movq	%rax, 120(%rsp)
	movq	80(%r12), %rax
	movq	$0, 128(%rsp)
	movq	%rax, 128(%rsp)
	movq	88(%r12), %rax
	movq	$0, 136(%rsp)
	movq	%rax, 136(%rsp)
	movq	96(%r12), %rax
	movq	$0, 144(%rsp)
	movq	%rax, 144(%rsp)
	movq	(%r14), %rax
	movq	-8(%rax), %r13
	movl	%r13d, %edi
	callq	push_jit_object
	addq	$-8, (%r14)
	movq	$0, 144(%rsp)
	movq	%r13, 144(%rsp)
	movl	$0, gSigInt(%rip)
	movl	72(%rsp), %ebx
	movl	$8996, %esi             # imm = 0x2324
	movq	224(%rsp), %rdi
	callq	get_class_with_load_and_initialize_in_jit
	testq	%rax, %rax
	je	.LBB18_1
# BB#75:                                # %entry_ifend1352
                                        #   in Loop: Header=BB18_65 Depth=2
	movq	48(%rsp), %rcx
	movq	$0, (%r15)
	movq	%rcx, (%r15)
	movq	56(%rsp), %rcx
	movq	$0, 8(%r15)
	movq	%rcx, 8(%r15)
	movq	64(%rsp), %rcx
	movq	$0, 16(%r15)
	movq	%rcx, 16(%r15)
	movq	72(%rsp), %rcx
	movq	$0, 24(%r15)
	movq	%rcx, 24(%r15)
	movq	80(%rsp), %rcx
	movq	$0, 32(%r15)
	movq	%rcx, 32(%r15)
	movq	88(%rsp), %rcx
	movq	$0, 40(%r15)
	movq	%rcx, 40(%r15)
	movq	96(%rsp), %rcx
	movq	$0, 48(%r15)
	movq	%rcx, 48(%r15)
	movq	104(%rsp), %rcx
	movq	$0, 56(%r15)
	movq	%rcx, 56(%r15)
	movq	112(%rsp), %rcx
	movq	$0, 64(%r15)
	movq	%rcx, 64(%r15)
	movq	120(%rsp), %rcx
	movq	$0, 72(%r15)
	movq	%rcx, 72(%r15)
	movq	128(%rsp), %rcx
	movq	$0, 80(%r15)
	movq	%rcx, 80(%r15)
	movq	136(%rsp), %rcx
	movq	$0, 88(%r15)
	movq	%rcx, 88(%r15)
	movq	144(%rsp), %rcx
	movq	$0, 96(%r15)
	movq	%rcx, 96(%r15)
	movq	(%r14), %rcx
	movq	$0, (%rcx)
	movl	%ebx, %edx
	movq	%rdx, (%rcx)
	movq	(%r14), %rcx
	leaq	8(%rcx), %rdx
	movq	%rdx, (%r14)
	movq	$0, 8(%rcx)
	movl	%r13d, %edx
	movq	%r14, %rbx
	movq	%rdx, 8(%rcx)
	addq	$8, (%rbx)
	movl	$7, %esi
	movq	%rax, %rdi
	movq	%r12, %rdx
	movl	%ebp, %ecx
	movq	%rbx, %r8
	movq	24(%rsp), %r13          # 8-byte Reload
	movq	%r13, %r9
	callq	call_invoke_method
	cmpl	$1, %eax
	je	.LBB18_76
	jmp	.LBB18_31
.LBB18_80:                              # %label_for_endzzzzzzzzzzzzzzzzzv
                                        #   in Loop: Header=BB18_13 Depth=1
	movq	%rbx, 16(%rsp)          # 8-byte Spill
	movl	%ebp, 44(%rsp)          # 4-byte Spill
	movq	%r13, 24(%rsp)          # 8-byte Spill
	movl	56(%rsp), %edi
	callq	get_regex_global
	testl	%eax, %eax
	movq	224(%rsp), %rbp
	jne	.LBB18_13
# BB#81:                                # %entry_condend1429
	movl	$0, gSigInt(%rip)
	movl	96(%rsp), %ebx
	movl	88(%rsp), %r12d
	movl	$9112, %esi             # imm = 0x2398
	movq	%rbp, %rdi
	callq	get_class_with_load_and_initialize_in_jit
	testq	%rax, %rax
	movq	%r15, %rdx
	je	.LBB18_1
# BB#82:                                # %entry_ifend1434
	movq	%rbp, %r14
	movq	48(%rsp), %rcx
	movq	32(%rsp), %rsi          # 8-byte Reload
	movq	$0, (%rsi)
	movq	%rcx, (%rsi)
	movq	56(%rsp), %rcx
	movq	$0, 8(%rsi)
	movq	%rcx, 8(%rsi)
	movq	64(%rsp), %rcx
	movq	$0, 16(%rsi)
	movq	%rcx, 16(%rsi)
	movq	72(%rsp), %rcx
	movq	$0, 24(%rsi)
	movq	%rcx, 24(%rsi)
	movq	80(%rsp), %rcx
	movq	$0, 32(%rsi)
	movq	%rcx, 32(%rsi)
	movq	88(%rsp), %rcx
	movq	$0, 40(%rsi)
	movq	%rcx, 40(%rsi)
	movq	96(%rsp), %rcx
	movq	$0, 48(%rsi)
	movq	%rcx, 48(%rsi)
	movq	104(%rsp), %rcx
	movq	$0, 56(%rsi)
	movq	%rcx, 56(%rsi)
	movq	112(%rsp), %rcx
	movq	$0, 64(%rsi)
	movq	%rcx, 64(%rsi)
	movq	120(%rsp), %rcx
	movq	$0, 72(%rsi)
	movq	%rcx, 72(%rsi)
	movq	128(%rsp), %rcx
	movq	$0, 80(%rsi)
	movq	%rcx, 80(%rsi)
	movq	136(%rsp), %rcx
	movq	$0, 88(%rsi)
	movq	%rcx, 88(%rsi)
	movq	144(%rsp), %rcx
	movq	$0, 96(%rsi)
	movq	%rcx, 96(%rsi)
	movq	%rsi, %r15
	movq	16(%rsp), %r8           # 8-byte Reload
	movq	(%r8), %rcx
	movq	$0, (%rcx)
	movl	%ebx, %esi
	movq	%rsi, (%rcx)
	movq	(%r8), %rcx
	leaq	8(%rcx), %rsi
	movq	%rsi, (%r8)
	movq	$0, 8(%rcx)
	movl	%r12d, %esi
	movq	%rsi, 8(%rcx)
	movq	(%r8), %rcx
	leaq	8(%rcx), %rsi
	movq	%rsi, (%r8)
	movq	$0, 8(%rcx)
	movl	$4294967295, %esi       # imm = 0xFFFFFFFF
	movq	%rsi, 8(%rcx)
	addq	$8, (%r8)
	movl	$11, %esi
	movq	%rax, %rdi
	movq	%rdx, %r12
	movl	44(%rsp), %ecx          # 4-byte Reload
	movq	%r8, %rbx
	movq	24(%rsp), %r9           # 8-byte Reload
	callq	call_invoke_method
	cmpl	$1, %eax
	jne	.LBB18_39
# BB#83:                                # %entry_ifend1473
	movq	%r12, %rbp
	movq	(%rbp), %rax
	movq	$0, 48(%rsp)
	movq	%rax, 48(%rsp)
	movq	8(%rbp), %rax
	movq	$0, 56(%rsp)
	movq	%rax, 56(%rsp)
	movq	16(%rbp), %rax
	movq	$0, 64(%rsp)
	movq	%rax, 64(%rsp)
	movq	24(%rbp), %rax
	movq	$0, 72(%rsp)
	movq	%rax, 72(%rsp)
	movq	32(%rbp), %rax
	movq	$0, 80(%rsp)
	movq	%rax, 80(%rsp)
	movq	40(%rbp), %rax
	movq	$0, 88(%rsp)
	movq	%rax, 88(%rsp)
	movq	48(%rbp), %rax
	movq	$0, 96(%rsp)
	movq	%rax, 96(%rsp)
	movq	56(%rbp), %rax
	movq	$0, 104(%rsp)
	movq	%rax, 104(%rsp)
	movq	64(%rbp), %rax
	movq	$0, 112(%rsp)
	movq	%rax, 112(%rsp)
	movq	72(%rbp), %rax
	movq	$0, 120(%rsp)
	movq	%rax, 120(%rsp)
	movq	80(%rbp), %rax
	movq	$0, 128(%rsp)
	movq	%rax, 128(%rsp)
	movq	88(%rbp), %rax
	movq	$0, 136(%rsp)
	movq	%rax, 136(%rsp)
	movq	96(%rbp), %rax
	movq	$0, 144(%rsp)
	movq	%rax, 144(%rsp)
	movq	(%rbx), %rax
	movq	-8(%rax), %r13
	movl	%r13d, %edi
	callq	push_jit_object
	addq	$-8, (%rbx)
	movl	$9120, %esi             # imm = 0x23A0
	movq	%r14, %rdi
	callq	get_class_with_load_and_initialize_in_jit
	testq	%rax, %rax
	je	.LBB18_1
# BB#84:                                # %entry_ifend1508
	movq	%r14, %r12
	movq	48(%rsp), %rcx
	movq	$0, (%r15)
	movq	%rcx, (%r15)
	movq	56(%rsp), %rcx
	movq	$0, 8(%r15)
	movq	%rcx, 8(%r15)
	movq	64(%rsp), %rcx
	movq	$0, 16(%r15)
	movq	%rcx, 16(%r15)
	movq	72(%rsp), %rcx
	movq	$0, 24(%r15)
	movq	%rcx, 24(%r15)
	movq	80(%rsp), %rcx
	movq	$0, 32(%r15)
	movq	%rcx, 32(%r15)
	movq	88(%rsp), %rcx
	movq	$0, 40(%r15)
	movq	%rcx, 40(%r15)
	movq	96(%rsp), %rcx
	movq	$0, 48(%r15)
	movq	%rcx, 48(%r15)
	movq	104(%rsp), %rcx
	movq	$0, 56(%r15)
	movq	%rcx, 56(%r15)
	movq	112(%rsp), %rcx
	movq	$0, 64(%r15)
	movq	%rcx, 64(%r15)
	movq	120(%rsp), %rcx
	movq	$0, 72(%r15)
	movq	%rcx, 72(%r15)
	movq	128(%rsp), %rcx
	movq	$0, 80(%r15)
	movq	%rcx, 80(%r15)
	movq	136(%rsp), %rcx
	movq	$0, 88(%r15)
	movq	%rcx, 88(%r15)
	movq	144(%rsp), %rcx
	movq	$0, 96(%r15)
	movq	%rcx, 96(%r15)
	movq	%rbx, %r8
	movq	(%r8), %rcx
	movq	$0, (%rcx)
	movq	%r13, (%rcx)
	addq	$8, (%r8)
	movl	$10, %esi
	movq	%rax, %rdi
	movq	%rbp, %rdx
	movl	44(%rsp), %ecx          # 4-byte Reload
	movq	24(%rsp), %r9           # 8-byte Reload
	callq	call_invoke_method
	cmpl	$1, %eax
	jne	.LBB18_39
# BB#85:                                # %entry_ifend1541
	movq	(%rbp), %rax
	movq	$0, 48(%rsp)
	movq	%rax, 48(%rsp)
	movq	8(%rbp), %rax
	movq	$0, 56(%rsp)
	movq	%rax, 56(%rsp)
	movq	16(%rbp), %rax
	movq	$0, 64(%rsp)
	movq	%rax, 64(%rsp)
	movq	24(%rbp), %rax
	movq	$0, 72(%rsp)
	movq	%rax, 72(%rsp)
	movq	32(%rbp), %rax
	movq	$0, 80(%rsp)
	movq	%rax, 80(%rsp)
	movq	40(%rbp), %rax
	movq	$0, 88(%rsp)
	movq	%rax, 88(%rsp)
	movq	48(%rbp), %rax
	movq	$0, 96(%rsp)
	movq	%rax, 96(%rsp)
	movq	56(%rbp), %rax
	movq	$0, 104(%rsp)
	movq	%rax, 104(%rsp)
	movq	64(%rbp), %rax
	movq	$0, 112(%rsp)
	movq	%rax, 112(%rsp)
	movq	72(%rbp), %rax
	movq	$0, 120(%rsp)
	movq	%rax, 120(%rsp)
	movq	80(%rbp), %rax
	movq	$0, 128(%rsp)
	movq	%rax, 128(%rsp)
	movq	88(%rbp), %rax
	movq	$0, 136(%rsp)
	movq	%rax, 136(%rsp)
	movq	96(%rbp), %rax
	movq	$0, 144(%rsp)
	movq	%rax, 144(%rsp)
	movq	(%rbx), %rax
	movq	-8(%rax), %r13
	movl	%r13d, %edi
	callq	push_jit_object
	addq	$-8, (%rbx)
	movq	%rbx, %r14
	movq	$0, 144(%rsp)
	movq	%r13, 144(%rsp)
	movl	$0, gSigInt(%rip)
	movl	80(%rsp), %ebx
	movl	$9128, %esi             # imm = 0x23A8
	movq	%r12, %rdi
	callq	get_class_with_load_and_initialize_in_jit
	testq	%rax, %rax
	je	.LBB18_1
# BB#86:                                # %entry_ifend1578
	movq	48(%rsp), %rcx
	movq	$0, (%r15)
	movq	%rcx, (%r15)
	movq	56(%rsp), %rcx
	movq	$0, 8(%r15)
	movq	%rcx, 8(%r15)
	movq	64(%rsp), %rcx
	movq	$0, 16(%r15)
	movq	%rcx, 16(%r15)
	movq	72(%rsp), %rcx
	movq	$0, 24(%r15)
	movq	%rcx, 24(%r15)
	movq	80(%rsp), %rcx
	movq	$0, 32(%r15)
	movq	%rcx, 32(%r15)
	movq	88(%rsp), %rcx
	movq	$0, 40(%r15)
	movq	%rcx, 40(%r15)
	movq	96(%rsp), %rcx
	movq	$0, 48(%r15)
	movq	%rcx, 48(%r15)
	movq	104(%rsp), %rcx
	movq	$0, 56(%r15)
	movq	%rcx, 56(%r15)
	movq	112(%rsp), %rcx
	movq	$0, 64(%r15)
	movq	%rcx, 64(%r15)
	movq	120(%rsp), %rcx
	movq	$0, 72(%r15)
	movq	%rcx, 72(%r15)
	movq	128(%rsp), %rcx
	movq	$0, 80(%r15)
	movq	%rcx, 80(%r15)
	movq	136(%rsp), %rcx
	movq	$0, 88(%r15)
	movq	%rcx, 88(%r15)
	movq	144(%rsp), %rcx
	movq	$0, 96(%r15)
	movq	%rcx, 96(%r15)
	movq	%r14, %r8
	movq	(%r8), %rcx
	movq	$0, (%rcx)
	movl	%ebx, %edx
	movq	%rdx, (%rcx)
	movq	(%r8), %rcx
	leaq	8(%rcx), %rdx
	movq	%rdx, (%r8)
	movq	$0, 8(%rcx)
	movl	%r13d, %edx
	jmp	.LBB18_47
.LBB18_31:                              # %then_block571
	movq	%r13, %rdi
	callq	get_try_catch_label_name
	jmp	.LBB18_1
.LBB18_87:                              # %label_if_elifzzzzzzzzzzzzzzzzzp0a
	movl	$9332, %esi             # imm = 0x2474
	movq	224(%rsp), %rdi
	callq	get_class_with_load_and_initialize_in_jit
	testq	%rax, %rax
	movq	%r13, %r15
	je	.LBB18_1
# BB#88:                                # %entry_ifend1654
	movq	48(%rsp), %rcx
	movq	32(%rsp), %r12          # 8-byte Reload
	movq	$0, (%r12)
	movq	%rcx, (%r12)
	movq	56(%rsp), %rcx
	movq	$0, 8(%r12)
	movq	%rcx, 8(%r12)
	movq	64(%rsp), %rcx
	movq	$0, 16(%r12)
	movq	%rcx, 16(%r12)
	movq	72(%rsp), %rcx
	movq	$0, 24(%r12)
	movq	%rcx, 24(%r12)
	movq	80(%rsp), %rcx
	movq	$0, 32(%r12)
	movq	%rcx, 32(%r12)
	movq	88(%rsp), %rcx
	movq	$0, 40(%r12)
	movq	%rcx, 40(%r12)
	movq	96(%rsp), %rcx
	movq	$0, 48(%r12)
	movq	%rcx, 48(%r12)
	movq	104(%rsp), %rcx
	movq	$0, 56(%r12)
	movq	%rcx, 56(%r12)
	movq	112(%rsp), %rcx
	movq	$0, 64(%r12)
	movq	%rcx, 64(%r12)
	movq	120(%rsp), %rcx
	movq	$0, 72(%r12)
	movq	%rcx, 72(%r12)
	movq	128(%rsp), %rcx
	movq	$0, 80(%r12)
	movq	%rcx, 80(%r12)
	movq	136(%rsp), %rcx
	movq	$0, 88(%r12)
	movq	%rcx, 88(%r12)
	movq	144(%rsp), %rcx
	movq	$0, 96(%r12)
	movq	%rcx, 96(%r12)
	movq	16(%rsp), %r14          # 8-byte Reload
	movq	(%r14), %rcx
	movq	$0, (%rcx)
	movl	4(%rsp), %edx           # 4-byte Reload
	movq	%rdx, (%rcx)
	movq	(%r14), %rcx
	leaq	8(%rcx), %rdx
	movq	%rdx, (%r14)
	movq	$0, 8(%rcx)
	movl	8(%rsp), %edx           # 4-byte Reload
	movq	%r14, %rbp
	movq	%rdx, 8(%rcx)
	movq	(%rbp), %rcx
	leaq	8(%rcx), %rdx
	movq	%rdx, (%rbp)
	movq	$0, 8(%rcx)
	movl	$4294967295, %edx       # imm = 0xFFFFFFFF
	movq	%rdx, 8(%rcx)
	addq	$8, (%rbp)
	movl	$11, %esi
	movq	%rax, %rdi
	movq	%r15, %rdx
	movl	44(%rsp), %ecx          # 4-byte Reload
	movq	%rbp, %r8
	movq	24(%rsp), %rbx          # 8-byte Reload
	movq	%rbx, %r9
	callq	call_invoke_method
	cmpl	$1, %eax
	je	.LBB18_89
.LBB18_11:                              # %then_block176
	movq	%rbx, %rdi
	callq	get_try_catch_label_name
	jmp	.LBB18_1
.LBB18_26:                              # %then_block425
	movq	%r15, %rdi
	callq	get_try_catch_label_name
	jmp	.LBB18_1
.LBB18_37:                              # %entry_condend632
	movl	$0, gSigInt(%rip)
	movl	96(%rsp), %r13d
	movl	88(%rsp), %r14d
	movl	$8500, %esi             # imm = 0x2134
	movq	%rbp, %rdi
	callq	get_class_with_load_and_initialize_in_jit
	testq	%rax, %rax
	movq	%r15, %rbx
	je	.LBB18_1
# BB#38:                                # %entry_ifend637
	movq	%rbp, %r12
	movq	48(%rsp), %rcx
	movq	32(%rsp), %rdx          # 8-byte Reload
	movq	$0, (%rdx)
	movq	%rcx, (%rdx)
	movq	56(%rsp), %rcx
	movq	$0, 8(%rdx)
	movq	%rcx, 8(%rdx)
	movq	64(%rsp), %rcx
	movq	$0, 16(%rdx)
	movq	%rcx, 16(%rdx)
	movq	72(%rsp), %rcx
	movq	$0, 24(%rdx)
	movq	%rcx, 24(%rdx)
	movq	80(%rsp), %rcx
	movq	$0, 32(%rdx)
	movq	%rcx, 32(%rdx)
	movq	88(%rsp), %rcx
	movq	$0, 40(%rdx)
	movq	%rcx, 40(%rdx)
	movq	96(%rsp), %rcx
	movq	$0, 48(%rdx)
	movq	%rcx, 48(%rdx)
	movq	104(%rsp), %rcx
	movq	$0, 56(%rdx)
	movq	%rcx, 56(%rdx)
	movq	112(%rsp), %rcx
	movq	$0, 64(%rdx)
	movq	%rcx, 64(%rdx)
	movq	120(%rsp), %rcx
	movq	$0, 72(%rdx)
	movq	%rcx, 72(%rdx)
	movq	128(%rsp), %rcx
	movq	$0, 80(%rdx)
	movq	%rcx, 80(%rdx)
	movq	136(%rsp), %rcx
	movq	$0, 88(%rdx)
	movq	%rcx, 88(%rdx)
	movq	144(%rsp), %rcx
	movq	$0, 96(%rdx)
	movq	%rcx, 96(%rdx)
	movq	%rdx, %r15
	movq	16(%rsp), %rbp          # 8-byte Reload
	movq	(%rbp), %rcx
	movq	$0, (%rcx)
	movl	%r13d, %edx
	movq	%rdx, (%rcx)
	movq	(%rbp), %rcx
	leaq	8(%rcx), %rdx
	movq	%rdx, (%rbp)
	movq	$0, 8(%rcx)
	movl	%r14d, %edx
	movq	%rdx, 8(%rcx)
	movq	(%rbp), %rcx
	leaq	8(%rcx), %rdx
	movq	%rdx, (%rbp)
	movq	$0, 8(%rcx)
	movl	$4294967295, %edx       # imm = 0xFFFFFFFF
	movq	%rdx, 8(%rcx)
	addq	$8, (%rbp)
	movl	$11, %esi
	movq	%rax, %rdi
	movq	%rbx, %rdx
	movl	44(%rsp), %ecx          # 4-byte Reload
	movq	%rbp, %r8
	movq	24(%rsp), %r9           # 8-byte Reload
	callq	call_invoke_method
	cmpl	$1, %eax
	jne	.LBB18_39
# BB#43:                                # %entry_ifend676
	movq	(%rbx), %rax
	movq	$0, 48(%rsp)
	movq	%rax, 48(%rsp)
	movq	8(%rbx), %rax
	movq	$0, 56(%rsp)
	movq	%rax, 56(%rsp)
	movq	16(%rbx), %rax
	movq	$0, 64(%rsp)
	movq	%rax, 64(%rsp)
	movq	24(%rbx), %rax
	movq	$0, 72(%rsp)
	movq	%rax, 72(%rsp)
	movq	32(%rbx), %rax
	movq	$0, 80(%rsp)
	movq	%rax, 80(%rsp)
	movq	40(%rbx), %rax
	movq	$0, 88(%rsp)
	movq	%rax, 88(%rsp)
	movq	48(%rbx), %rax
	movq	$0, 96(%rsp)
	movq	%rax, 96(%rsp)
	movq	56(%rbx), %rax
	movq	$0, 104(%rsp)
	movq	%rax, 104(%rsp)
	movq	64(%rbx), %rax
	movq	$0, 112(%rsp)
	movq	%rax, 112(%rsp)
	movq	72(%rbx), %rax
	movq	$0, 120(%rsp)
	movq	%rax, 120(%rsp)
	movq	80(%rbx), %rax
	movq	$0, 128(%rsp)
	movq	%rax, 128(%rsp)
	movq	88(%rbx), %rax
	movq	$0, 136(%rsp)
	movq	%rax, 136(%rsp)
	movq	96(%rbx), %rax
	movq	$0, 144(%rsp)
	movq	%rax, 144(%rsp)
	movq	(%rbp), %rax
	movq	%rbp, %r14
	movq	-8(%rax), %r13
	movl	%r13d, %edi
	callq	push_jit_object
	addq	$-8, (%r14)
	movl	$8508, %esi             # imm = 0x213C
	movq	%r12, %rdi
	callq	get_class_with_load_and_initialize_in_jit
	testq	%rax, %rax
	movq	%rbx, %rdx
	je	.LBB18_1
# BB#44:                                # %entry_ifend711
	movq	48(%rsp), %rcx
	movq	$0, (%r15)
	movq	%rcx, (%r15)
	movq	56(%rsp), %rcx
	movq	$0, 8(%r15)
	movq	%rcx, 8(%r15)
	movq	64(%rsp), %rcx
	movq	$0, 16(%r15)
	movq	%rcx, 16(%r15)
	movq	72(%rsp), %rcx
	movq	$0, 24(%r15)
	movq	%rcx, 24(%r15)
	movq	80(%rsp), %rcx
	movq	$0, 32(%r15)
	movq	%rcx, 32(%r15)
	movq	88(%rsp), %rcx
	movq	$0, 40(%r15)
	movq	%rcx, 40(%r15)
	movq	96(%rsp), %rcx
	movq	$0, 48(%r15)
	movq	%rcx, 48(%r15)
	movq	104(%rsp), %rcx
	movq	$0, 56(%r15)
	movq	%rcx, 56(%r15)
	movq	112(%rsp), %rcx
	movq	$0, 64(%r15)
	movq	%rcx, 64(%r15)
	movq	120(%rsp), %rcx
	movq	$0, 72(%r15)
	movq	%rcx, 72(%r15)
	movq	128(%rsp), %rcx
	movq	$0, 80(%r15)
	movq	%rcx, 80(%r15)
	movq	136(%rsp), %rcx
	movq	$0, 88(%r15)
	movq	%rcx, 88(%r15)
	movq	144(%rsp), %rcx
	movq	$0, 96(%r15)
	movq	%rcx, 96(%r15)
	movq	(%r14), %rcx
	movq	$0, (%rcx)
	movq	%r13, (%rcx)
	addq	$8, (%r14)
	movl	$10, %esi
	movq	%rax, %rdi
	movq	%rdx, %r12
	movl	44(%rsp), %ecx          # 4-byte Reload
	movq	%r14, %r8
	movq	24(%rsp), %r9           # 8-byte Reload
	callq	call_invoke_method
	cmpl	$1, %eax
	jne	.LBB18_39
# BB#45:                                # %entry_ifend744
	movq	%r12, %rbp
	movq	(%rbp), %rax
	movq	$0, 48(%rsp)
	movq	%rax, 48(%rsp)
	movq	8(%rbp), %rax
	movq	$0, 56(%rsp)
	movq	%rax, 56(%rsp)
	movq	16(%rbp), %rax
	movq	$0, 64(%rsp)
	movq	%rax, 64(%rsp)
	movq	24(%rbp), %rax
	movq	$0, 72(%rsp)
	movq	%rax, 72(%rsp)
	movq	32(%rbp), %rax
	movq	$0, 80(%rsp)
	movq	%rax, 80(%rsp)
	movq	40(%rbp), %rax
	movq	$0, 88(%rsp)
	movq	%rax, 88(%rsp)
	movq	48(%rbp), %rax
	movq	$0, 96(%rsp)
	movq	%rax, 96(%rsp)
	movq	56(%rbp), %rax
	movq	$0, 104(%rsp)
	movq	%rax, 104(%rsp)
	movq	64(%rbp), %rax
	movq	$0, 112(%rsp)
	movq	%rax, 112(%rsp)
	movq	72(%rbp), %rax
	movq	$0, 120(%rsp)
	movq	%rax, 120(%rsp)
	movq	80(%rbp), %rax
	movq	$0, 128(%rsp)
	movq	%rax, 128(%rsp)
	movq	88(%rbp), %rax
	movq	$0, 136(%rsp)
	movq	%rax, 136(%rsp)
	movq	96(%rbp), %rax
	movq	$0, 144(%rsp)
	movq	%rax, 144(%rsp)
	movq	%r14, %rbx
	movq	(%rbx), %rax
	movq	-8(%rax), %r14
	movl	%r14d, %edi
	callq	push_jit_object
	addq	$-8, (%rbx)
	movq	%rbx, %r12
	movq	$0, 136(%rsp)
	movq	%r14, 136(%rsp)
	movl	$0, gSigInt(%rip)
	movl	80(%rsp), %ebx
	movl	$8516, %esi             # imm = 0x2144
	movq	224(%rsp), %rdi
	callq	get_class_with_load_and_initialize_in_jit
	testq	%rax, %rax
	je	.LBB18_1
# BB#46:                                # %entry_ifend781
	movq	48(%rsp), %rcx
	movq	$0, (%r15)
	movq	%rcx, (%r15)
	movq	56(%rsp), %rcx
	movq	$0, 8(%r15)
	movq	%rcx, 8(%r15)
	movq	64(%rsp), %rcx
	movq	$0, 16(%r15)
	movq	%rcx, 16(%r15)
	movq	72(%rsp), %rcx
	movq	$0, 24(%r15)
	movq	%rcx, 24(%r15)
	movq	80(%rsp), %rcx
	movq	$0, 32(%r15)
	movq	%rcx, 32(%r15)
	movq	88(%rsp), %rcx
	movq	$0, 40(%r15)
	movq	%rcx, 40(%r15)
	movq	96(%rsp), %rcx
	movq	$0, 48(%r15)
	movq	%rcx, 48(%r15)
	movq	104(%rsp), %rcx
	movq	$0, 56(%r15)
	movq	%rcx, 56(%r15)
	movq	112(%rsp), %rcx
	movq	$0, 64(%r15)
	movq	%rcx, 64(%r15)
	movq	120(%rsp), %rcx
	movq	$0, 72(%r15)
	movq	%rcx, 72(%r15)
	movq	128(%rsp), %rcx
	movq	$0, 80(%r15)
	movq	%rcx, 80(%r15)
	movq	136(%rsp), %rcx
	movq	$0, 88(%r15)
	movq	%rcx, 88(%r15)
	movq	144(%rsp), %rcx
	movq	$0, 96(%r15)
	movq	%rcx, 96(%r15)
	movq	%r12, %r8
	movq	(%r8), %rcx
	movq	$0, (%rcx)
	movl	%ebx, %edx
	movq	%rdx, (%rcx)
	movq	(%r8), %rcx
	leaq	8(%rcx), %rdx
	movq	%rdx, (%r8)
	movq	$0, 8(%rcx)
	movl	%r14d, %edx
.LBB18_47:                              # %entry_ifend781
	movq	%rdx, 8(%rcx)
	addq	$8, (%r8)
	movl	$8, %esi
	movq	%rax, %rdi
	movq	%rbp, %rdx
	movl	44(%rsp), %ecx          # 4-byte Reload
	movq	%r8, %rbx
	movq	24(%rsp), %r9           # 8-byte Reload
	callq	call_invoke_method
	cmpl	$1, %eax
	jne	.LBB18_39
# BB#48:                                # %entry_ifend817
	movq	%rbp, %rcx
	movq	(%rcx), %rax
	movq	$0, 48(%rsp)
	movq	%rax, 48(%rsp)
	movq	8(%rcx), %rax
	movq	$0, 56(%rsp)
	movq	%rax, 56(%rsp)
	movq	16(%rcx), %rax
	movq	$0, 64(%rsp)
	movq	%rax, 64(%rsp)
	movq	24(%rcx), %rax
	movq	$0, 72(%rsp)
	movq	%rax, 72(%rsp)
	movq	32(%rcx), %rax
	movq	$0, 80(%rsp)
	movq	%rax, 80(%rsp)
	movq	40(%rcx), %rax
	movq	$0, 88(%rsp)
	movq	%rax, 88(%rsp)
	movq	48(%rcx), %rax
	movq	$0, 96(%rsp)
	movq	%rax, 96(%rsp)
	movq	56(%rcx), %rax
	movq	$0, 104(%rsp)
	movq	%rax, 104(%rsp)
	movq	64(%rcx), %rax
	movq	$0, 112(%rsp)
	movq	%rax, 112(%rsp)
	movq	72(%rcx), %rax
	movq	$0, 120(%rsp)
	movq	%rax, 120(%rsp)
	movq	80(%rcx), %rax
	movq	$0, 128(%rsp)
	movq	%rax, 128(%rsp)
	movq	88(%rcx), %rax
	movq	$0, 136(%rsp)
	movq	%rax, 136(%rsp)
	movq	96(%rcx), %rax
	movq	%rcx, %r14
	movq	$0, 144(%rsp)
	movq	%rax, 144(%rsp)
	movq	(%rbx), %rax
	movl	-8(%rax), %edi
	callq	push_jit_object
	addq	$-8, (%rbx)
	jmp	.LBB18_94
.LBB18_89:                              # %entry_ifend1693
	movq	(%r15), %rax
	movq	$0, 48(%rsp)
	movq	%rax, 48(%rsp)
	movq	8(%r15), %rax
	movq	$0, 56(%rsp)
	movq	%rax, 56(%rsp)
	movq	16(%r15), %rax
	movq	$0, 64(%rsp)
	movq	%rax, 64(%rsp)
	movq	24(%r15), %rax
	movq	$0, 72(%rsp)
	movq	%rax, 72(%rsp)
	movq	32(%r15), %rax
	movq	$0, 80(%rsp)
	movq	%rax, 80(%rsp)
	movq	40(%r15), %rax
	movq	$0, 88(%rsp)
	movq	%rax, 88(%rsp)
	movq	48(%r15), %rax
	movq	$0, 96(%rsp)
	movq	%rax, 96(%rsp)
	movq	56(%r15), %rax
	movq	$0, 104(%rsp)
	movq	%rax, 104(%rsp)
	movq	64(%r15), %rax
	movq	$0, 112(%rsp)
	movq	%rax, 112(%rsp)
	movq	72(%r15), %rax
	movq	$0, 120(%rsp)
	movq	%rax, 120(%rsp)
	movq	80(%r15), %rax
	movq	$0, 128(%rsp)
	movq	%rax, 128(%rsp)
	movq	88(%r15), %rax
	movq	$0, 136(%rsp)
	movq	%rax, 136(%rsp)
	movq	96(%r15), %rax
	movq	$0, 144(%rsp)
	movq	%rax, 144(%rsp)
	movq	(%rbp), %rax
	movq	-8(%rax), %r13
	movl	%r13d, %edi
	callq	push_jit_object
	addq	$-8, (%rbp)
	movl	$9340, %esi             # imm = 0x247C
	movq	224(%rsp), %rdi
	callq	get_class_with_load_and_initialize_in_jit
	testq	%rax, %rax
	je	.LBB18_1
# BB#90:                                # %entry_ifend1728
	movq	48(%rsp), %rcx
	movq	$0, (%r12)
	movq	%rcx, (%r12)
	movq	56(%rsp), %rcx
	movq	$0, 8(%r12)
	movq	%rcx, 8(%r12)
	movq	64(%rsp), %rcx
	movq	$0, 16(%r12)
	movq	%rcx, 16(%r12)
	movq	72(%rsp), %rcx
	movq	$0, 24(%r12)
	movq	%rcx, 24(%r12)
	movq	80(%rsp), %rcx
	movq	$0, 32(%r12)
	movq	%rcx, 32(%r12)
	movq	88(%rsp), %rcx
	movq	$0, 40(%r12)
	movq	%rcx, 40(%r12)
	movq	96(%rsp), %rcx
	movq	$0, 48(%r12)
	movq	%rcx, 48(%r12)
	movq	104(%rsp), %rcx
	movq	$0, 56(%r12)
	movq	%rcx, 56(%r12)
	movq	112(%rsp), %rcx
	movq	$0, 64(%r12)
	movq	%rcx, 64(%r12)
	movq	120(%rsp), %rcx
	movq	$0, 72(%r12)
	movq	%rcx, 72(%r12)
	movq	128(%rsp), %rcx
	movq	$0, 80(%r12)
	movq	%rcx, 80(%r12)
	movq	136(%rsp), %rcx
	movq	$0, 88(%r12)
	movq	%rcx, 88(%r12)
	movq	144(%rsp), %rcx
	movq	$0, 96(%r12)
	movq	%rcx, 96(%r12)
	movq	%r12, %r14
	movq	%rbp, %r8
	movq	(%r8), %rcx
	movq	$0, (%rcx)
	movq	%r13, (%rcx)
	addq	$8, (%r8)
	movl	$10, %esi
	movq	%rax, %rdi
	movq	%r15, %rdx
	movl	44(%rsp), %ecx          # 4-byte Reload
	movq	24(%rsp), %r9           # 8-byte Reload
	callq	call_invoke_method
	cmpl	$1, %eax
	jne	.LBB18_39
# BB#91:                                # %entry_ifend1761
	movq	%r15, %rbx
	movq	(%rbx), %rax
	movq	$0, 48(%rsp)
	movq	%rax, 48(%rsp)
	movq	8(%rbx), %rax
	movq	$0, 56(%rsp)
	movq	%rax, 56(%rsp)
	movq	16(%rbx), %rax
	movq	$0, 64(%rsp)
	movq	%rax, 64(%rsp)
	movq	24(%rbx), %rax
	movq	$0, 72(%rsp)
	movq	%rax, 72(%rsp)
	movq	32(%rbx), %rax
	movq	$0, 80(%rsp)
	movq	%rax, 80(%rsp)
	movq	40(%rbx), %rax
	movq	$0, 88(%rsp)
	movq	%rax, 88(%rsp)
	movq	48(%rbx), %rax
	movq	$0, 96(%rsp)
	movq	%rax, 96(%rsp)
	movq	56(%rbx), %rax
	movq	$0, 104(%rsp)
	movq	%rax, 104(%rsp)
	movq	64(%rbx), %rax
	movq	$0, 112(%rsp)
	movq	%rax, 112(%rsp)
	movq	72(%rbx), %rax
	movq	$0, 120(%rsp)
	movq	%rax, 120(%rsp)
	movq	80(%rbx), %rax
	movq	$0, 128(%rsp)
	movq	%rax, 128(%rsp)
	movq	88(%rbx), %rax
	movq	$0, 136(%rsp)
	movq	%rax, 136(%rsp)
	movq	96(%rbx), %rax
	movq	$0, 144(%rsp)
	movq	%rax, 144(%rsp)
	movq	(%rbp), %rax
	movq	-8(%rax), %r13
	movl	%r13d, %edi
	callq	push_jit_object
	addq	$-8, (%rbp)
	movq	%rbp, %r12
	movq	$0, 128(%rsp)
	movq	%r13, 128(%rsp)
	movl	$0, gSigInt(%rip)
	movl	80(%rsp), %ebp
	movl	$9348, %esi             # imm = 0x2484
	movq	224(%rsp), %rdi
	callq	get_class_with_load_and_initialize_in_jit
	testq	%rax, %rax
	je	.LBB18_1
# BB#92:                                # %entry_ifend1798
	movq	48(%rsp), %rcx
	movq	$0, (%r14)
	movq	%rcx, (%r14)
	movq	56(%rsp), %rcx
	movq	$0, 8(%r14)
	movq	%rcx, 8(%r14)
	movq	64(%rsp), %rcx
	movq	$0, 16(%r14)
	movq	%rcx, 16(%r14)
	movq	72(%rsp), %rcx
	movq	$0, 24(%r14)
	movq	%rcx, 24(%r14)
	movq	80(%rsp), %rcx
	movq	$0, 32(%r14)
	movq	%rcx, 32(%r14)
	movq	88(%rsp), %rcx
	movq	$0, 40(%r14)
	movq	%rcx, 40(%r14)
	movq	96(%rsp), %rcx
	movq	$0, 48(%r14)
	movq	%rcx, 48(%r14)
	movq	104(%rsp), %rcx
	movq	$0, 56(%r14)
	movq	%rcx, 56(%r14)
	movq	112(%rsp), %rcx
	movq	$0, 64(%r14)
	movq	%rcx, 64(%r14)
	movq	120(%rsp), %rcx
	movq	$0, 72(%r14)
	movq	%rcx, 72(%r14)
	movq	128(%rsp), %rcx
	movq	$0, 80(%r14)
	movq	%rcx, 80(%r14)
	movq	136(%rsp), %rcx
	movq	$0, 88(%r14)
	movq	%rcx, 88(%r14)
	movq	144(%rsp), %rcx
	movq	$0, 96(%r14)
	movq	%rcx, 96(%r14)
	movq	%r12, %r8
	movq	(%r8), %rcx
	movq	$0, (%rcx)
	movl	%ebp, %edx
	movq	%rdx, (%rcx)
	movq	(%r8), %rcx
	leaq	8(%rcx), %rdx
	movq	%rdx, (%r8)
	movq	$0, 8(%rcx)
	movl	%r13d, %edx
	movq	%rdx, 8(%rcx)
	addq	$8, (%r8)
	movl	$8, %esi
	movq	%rax, %rdi
	movq	%rbx, %rdx
	movl	44(%rsp), %ecx          # 4-byte Reload
	movq	%r8, %rbp
	movq	24(%rsp), %r9           # 8-byte Reload
	callq	call_invoke_method
	cmpl	$1, %eax
	je	.LBB18_93
.LBB18_39:                              # %then_block675
	movq	24(%rsp), %rdi          # 8-byte Reload
	callq	get_try_catch_label_name
	jmp	.LBB18_1
.LBB18_93:                              # %entry_ifend1834
	movq	%rbx, %rcx
	movq	(%rcx), %rax
	movq	$0, 48(%rsp)
	movq	%rax, 48(%rsp)
	movq	8(%rcx), %rax
	movq	$0, 56(%rsp)
	movq	%rax, 56(%rsp)
	movq	16(%rcx), %rax
	movq	$0, 64(%rsp)
	movq	%rax, 64(%rsp)
	movq	24(%rcx), %rax
	movq	$0, 72(%rsp)
	movq	%rax, 72(%rsp)
	movq	32(%rcx), %rax
	movq	$0, 80(%rsp)
	movq	%rax, 80(%rsp)
	movq	40(%rcx), %rax
	movq	$0, 88(%rsp)
	movq	%rax, 88(%rsp)
	movq	48(%rcx), %rax
	movq	$0, 96(%rsp)
	movq	%rax, 96(%rsp)
	movq	56(%rcx), %rax
	movq	$0, 104(%rsp)
	movq	%rax, 104(%rsp)
	movq	64(%rcx), %rax
	movq	$0, 112(%rsp)
	movq	%rax, 112(%rsp)
	movq	72(%rcx), %rax
	movq	$0, 120(%rsp)
	movq	%rax, 120(%rsp)
	movq	80(%rcx), %rax
	movq	$0, 128(%rsp)
	movq	%rax, 128(%rsp)
	movq	88(%rcx), %rax
	movq	$0, 136(%rsp)
	movq	%rax, 136(%rsp)
	movq	96(%rcx), %rax
	movq	%rcx, %r14
	movq	$0, 144(%rsp)
	movq	%rax, 144(%rsp)
	movq	(%rbp), %rax
	movl	-8(%rax), %edi
	callq	push_jit_object
	addq	$-8, (%rbp)
.LBB18_94:                              # %label_whilezzzzzzzzzzzzzzzzzo
	movl	$0, gSigInt(%rip)
	movl	$0, gSigInt(%rip)
	movl	80(%rsp), %eax
	movq	%rax, (%r14)
	movl	$1, %eax
	jmp	.LBB18_2
.Lfunc_end18:
	.size	"String.sub(regex,Self,EqualableList)$$22", .Lfunc_end18-"String.sub(regex,Self,EqualableList)$$22"
	.cfi_endproc

	.globl	"String.sub(regex,Self)$$23"
	.align	16, 0x90
	.type	"String.sub(regex,Self)$$23",@function
"String.sub(regex,Self)$$23":           # @"String.sub(regex,Self)$$23"
	.cfi_startproc
# BB#0:                                 # %entry
	pushq	%rbp
.Ltmp224:
	.cfi_def_cfa_offset 16
	pushq	%r15
.Ltmp225:
	.cfi_def_cfa_offset 24
	pushq	%r14
.Ltmp226:
	.cfi_def_cfa_offset 32
	pushq	%r13
.Ltmp227:
	.cfi_def_cfa_offset 40
	pushq	%r12
.Ltmp228:
	.cfi_def_cfa_offset 48
	pushq	%rbx
.Ltmp229:
	.cfi_def_cfa_offset 56
	subq	$40, %rsp
.Ltmp230:
	.cfi_def_cfa_offset 96
.Ltmp231:
	.cfi_offset %rbx, -56
.Ltmp232:
	.cfi_offset %r12, -48
.Ltmp233:
	.cfi_offset %r13, -40
.Ltmp234:
	.cfi_offset %r14, -32
.Ltmp235:
	.cfi_offset %r15, -24
.Ltmp236:
	.cfi_offset %rbp, -16
	movl	%r9d, 4(%rsp)           # 4-byte Spill
	movq	%r8, %rbx
	movq	%rcx, %r14
	movq	%rdx, 8(%rsp)           # 8-byte Spill
	movq	%rsi, %rbp
	movq	96(%rsp), %rdi
	movq	(%r14), %r15
	movq	$0, 16(%rsp)
	movq	%r15, 16(%rsp)
	movq	8(%r14), %r12
	movq	$0, 24(%rsp)
	movq	%r12, 24(%rsp)
	movq	16(%r14), %r13
	movq	$0, 32(%rsp)
	movq	%r13, 32(%rsp)
	movl	$0, gSigInt(%rip)
	movl	$9520, %esi             # imm = 0x2530
	callq	get_class_with_load_and_initialize_in_jit
	testq	%rax, %rax
	je	.LBB19_1
# BB#3:                                 # %entry_ifend
	movq	$0, (%rbp)
	movq	%r15, (%rbp)
	movq	$0, 8(%rbp)
	movq	%r12, 8(%rbp)
	movq	$0, 16(%rbp)
	movq	%r13, 16(%rbp)
	movq	(%rbx), %rcx
	movq	$0, (%rcx)
	movl	%r15d, %edx
	movq	%rdx, (%rcx)
	movq	(%rbx), %rcx
	leaq	8(%rcx), %rdx
	movq	%rdx, (%rbx)
	movq	$0, 8(%rcx)
	movl	%r12d, %edx
	movq	%rdx, 8(%rcx)
	movq	(%rbx), %rcx
	leaq	8(%rcx), %rdx
	movq	%rdx, (%rbx)
	movq	$0, 8(%rcx)
	movl	%r13d, %edx
	movq	%rdx, 8(%rcx)
	movq	(%rbx), %rcx
	leaq	8(%rcx), %rdx
	movq	%rdx, (%rbx)
	movq	$0, 8(%rcx)
	addq	$8, (%rbx)
	movl	$22, %esi
	movq	%rax, %rdi
	movq	%r14, %rdx
	movl	4(%rsp), %ecx           # 4-byte Reload
	movq	%rbx, %r8
	movq	8(%rsp), %rbp           # 8-byte Reload
	movq	%rbp, %r9
	callq	call_invoke_method
	cmpl	$1, %eax
	je	.LBB19_5
# BB#4:                                 # %then_block23
	movq	%rbp, %rdi
	callq	get_try_catch_label_name
.LBB19_1:                               # %then_block
	xorl	%eax, %eax
	jmp	.LBB19_2
.LBB19_5:                               # %entry_ifend24
	movq	(%r14), %rax
	movq	$0, 16(%rsp)
	movq	%rax, 16(%rsp)
	movq	8(%r14), %rax
	movq	$0, 24(%rsp)
	movq	%rax, 24(%rsp)
	movq	16(%r14), %rax
	movq	$0, 32(%rsp)
	movq	%rax, 32(%rsp)
	movq	(%rbx), %rax
	movq	-8(%rax), %rbp
	movl	%ebp, %edi
	callq	push_jit_object
	addq	$-8, (%rbx)
	movq	%rbp, (%r14)
	movl	$1, %eax
.LBB19_2:                               # %then_block
	addq	$40, %rsp
	popq	%rbx
	popq	%r12
	popq	%r13
	popq	%r14
	popq	%r15
	popq	%rbp
	retq
.Lfunc_end19:
	.size	"String.sub(regex,Self)$$23", .Lfunc_end19-"String.sub(regex,Self)$$23"
	.cfi_endproc

	.globl	"String.sub(regex,lambda,EqualableList)$$24"
	.align	16, 0x90
	.type	"String.sub(regex,lambda,EqualableList)$$24",@function
"String.sub(regex,lambda,EqualableList)$$24": # @"String.sub(regex,lambda,EqualableList)$$24"
	.cfi_startproc
# BB#0:                                 # %entry
	pushq	%rbp
.Ltmp237:
	.cfi_def_cfa_offset 16
	pushq	%r15
.Ltmp238:
	.cfi_def_cfa_offset 24
	pushq	%r14
.Ltmp239:
	.cfi_def_cfa_offset 32
	pushq	%r13
.Ltmp240:
	.cfi_def_cfa_offset 40
	pushq	%r12
.Ltmp241:
	.cfi_def_cfa_offset 48
	pushq	%rbx
.Ltmp242:
	.cfi_def_cfa_offset 56
	subq	$184, %rsp
.Ltmp243:
	.cfi_def_cfa_offset 240
.Ltmp244:
	.cfi_offset %rbx, -56
.Ltmp245:
	.cfi_offset %r12, -48
.Ltmp246:
	.cfi_offset %r13, -40
.Ltmp247:
	.cfi_offset %r14, -32
.Ltmp248:
	.cfi_offset %r15, -24
.Ltmp249:
	.cfi_offset %rbp, -16
	movl	%r9d, 44(%rsp)          # 4-byte Spill
	movq	%r8, %r15
	movq	%rcx, %rbx
	movq	%rdx, %r14
	movq	%rsi, %r13
	movq	240(%rsp), %rbp
	movq	(%rbx), %rax
	movq	$0, 48(%rsp)
	movq	%rax, 48(%rsp)
	movq	8(%rbx), %rax
	movq	$0, 56(%rsp)
	movq	%rax, 56(%rsp)
	movq	16(%rbx), %rax
	movq	$0, 64(%rsp)
	movq	%rax, 64(%rsp)
	movq	24(%rbx), %rax
	movq	$0, 72(%rsp)
	movq	%rax, 72(%rsp)
	movq	$0, 80(%rsp)
	movq	$0, 88(%rsp)
	movq	$0, 96(%rsp)
	movq	$0, 104(%rsp)
	movq	$0, 112(%rsp)
	movq	$0, 120(%rsp)
	movq	$0, 128(%rsp)
	movq	$0, 136(%rsp)
	movq	$0, 144(%rsp)
	movq	$0, 152(%rsp)
	movq	$0, 160(%rsp)
	movl	$0, gSigInt(%rip)
	movl	$9528, %esi             # imm = 0x2538
	movq	%rbp, %rdi
	callq	get_class_with_load_and_initialize_in_jit
	testq	%rax, %rax
	je	.LBB20_1
# BB#3:                                 # %entry_ifend
	movq	%rax, %rdi
	callq	create_object
	movl	%eax, %r12d
	movl	%r12d, %edi
	callq	push_jit_object
	movl	$9536, %esi             # imm = 0x2540
	movq	%rbp, %rdi
	callq	get_class_with_load_and_initialize_in_jit
	testq	%rax, %rax
	je	.LBB20_1
# BB#4:                                 # %entry_ifend7
	movq	48(%rsp), %rcx
	movq	%r13, 32(%rsp)          # 8-byte Spill
	movq	$0, (%r13)
	movq	%rcx, (%r13)
	movq	56(%rsp), %rcx
	movq	$0, 8(%r13)
	movq	%rcx, 8(%r13)
	movq	64(%rsp), %rcx
	movq	$0, 16(%r13)
	movq	%rcx, 16(%r13)
	movq	72(%rsp), %rcx
	movq	$0, 24(%r13)
	movq	%rcx, 24(%r13)
	movq	80(%rsp), %rcx
	movq	$0, 32(%r13)
	movq	%rcx, 32(%r13)
	movq	88(%rsp), %rcx
	movq	$0, 40(%r13)
	movq	%rcx, 40(%r13)
	movq	96(%rsp), %rcx
	movq	$0, 48(%r13)
	movq	%rcx, 48(%r13)
	movq	104(%rsp), %rcx
	movq	$0, 56(%r13)
	movq	%rcx, 56(%r13)
	movq	112(%rsp), %rcx
	movq	$0, 64(%r13)
	movq	%rcx, 64(%r13)
	movq	120(%rsp), %rcx
	movq	$0, 72(%r13)
	movq	%rcx, 72(%r13)
	movq	128(%rsp), %rcx
	movq	$0, 80(%r13)
	movq	%rcx, 80(%r13)
	movq	136(%rsp), %rcx
	movq	$0, 88(%r13)
	movq	%rcx, 88(%r13)
	movq	144(%rsp), %rcx
	movq	$0, 96(%r13)
	movq	%rcx, 96(%r13)
	movq	152(%rsp), %rcx
	movq	$0, 104(%r13)
	movq	%rcx, 104(%r13)
	movq	160(%rsp), %rcx
	movq	$0, 112(%r13)
	movq	%rcx, 112(%r13)
	movq	%r15, %rbp
	movq	(%rbp), %rcx
	movq	$0, (%rcx)
	movl	%r12d, %edx
	movq	%rdx, (%rcx)
	addq	$8, (%rbp)
	xorl	%esi, %esi
	movq	%rax, %rdi
	movq	%rbx, %rdx
	movl	44(%rsp), %r12d         # 4-byte Reload
	movq	%rbp, %r13
	movl	%r12d, %ecx
	movq	%r13, %r8
	movq	%r14, %r9
	callq	call_invoke_method
	cmpl	$1, %eax
	jne	.LBB20_5
# BB#6:                                 # %entry_ifend41
	movq	%r14, 24(%rsp)          # 8-byte Spill
	movq	(%rbx), %rax
	movq	$0, 48(%rsp)
	movq	%rax, 48(%rsp)
	movq	8(%rbx), %rax
	movq	$0, 56(%rsp)
	movq	%rax, 56(%rsp)
	movq	16(%rbx), %rax
	movq	$0, 64(%rsp)
	movq	%rax, 64(%rsp)
	movq	24(%rbx), %rax
	movq	$0, 72(%rsp)
	movq	%rax, 72(%rsp)
	movq	32(%rbx), %rax
	movq	$0, 80(%rsp)
	movq	%rax, 80(%rsp)
	movq	40(%rbx), %rax
	movq	$0, 88(%rsp)
	movq	%rax, 88(%rsp)
	movq	48(%rbx), %rax
	movq	$0, 96(%rsp)
	movq	%rax, 96(%rsp)
	movq	56(%rbx), %rax
	movq	$0, 104(%rsp)
	movq	%rax, 104(%rsp)
	movq	64(%rbx), %rax
	movq	$0, 112(%rsp)
	movq	%rax, 112(%rsp)
	movq	72(%rbx), %rax
	movq	$0, 120(%rsp)
	movq	%rax, 120(%rsp)
	movq	80(%rbx), %rax
	movq	$0, 128(%rsp)
	movq	%rax, 128(%rsp)
	movq	88(%rbx), %rax
	movq	$0, 136(%rsp)
	movq	%rax, 136(%rsp)
	movq	96(%rbx), %rax
	movq	$0, 144(%rsp)
	movq	%rax, 144(%rsp)
	movq	104(%rbx), %rax
	movq	$0, 152(%rsp)
	movq	%rax, 152(%rsp)
	movq	112(%rbx), %rax
	movq	$0, 160(%rsp)
	movq	%rax, 160(%rsp)
	movq	(%r13), %rax
	movq	-8(%rax), %rbp
	movl	%ebp, %edi
	callq	push_jit_object
	addq	$-8, (%r13)
	movq	$0, 80(%rsp)
	movq	%rbp, 80(%rsp)
	movl	$0, gSigInt(%rip)
	movq	$0, 88(%rsp)
	movl	$0, gSigInt(%rip)
	movl	48(%rsp), %r14d
	movl	$9544, %esi             # imm = 0x2548
	movq	240(%rsp), %rdi
	callq	get_class_with_load_and_initialize_in_jit
	testq	%rax, %rax
	movq	%rbx, %r15
	je	.LBB20_1
# BB#7:                                 # %entry_ifend77
	movq	48(%rsp), %rcx
	movq	32(%rsp), %rdx          # 8-byte Reload
	movq	$0, (%rdx)
	movq	%rcx, (%rdx)
	movq	56(%rsp), %rcx
	movq	$0, 8(%rdx)
	movq	%rcx, 8(%rdx)
	movq	64(%rsp), %rcx
	movq	$0, 16(%rdx)
	movq	%rcx, 16(%rdx)
	movq	72(%rsp), %rcx
	movq	$0, 24(%rdx)
	movq	%rcx, 24(%rdx)
	movq	80(%rsp), %rcx
	movq	$0, 32(%rdx)
	movq	%rcx, 32(%rdx)
	movq	88(%rsp), %rcx
	movq	$0, 40(%rdx)
	movq	%rcx, 40(%rdx)
	movq	96(%rsp), %rcx
	movq	$0, 48(%rdx)
	movq	%rcx, 48(%rdx)
	movq	104(%rsp), %rcx
	movq	$0, 56(%rdx)
	movq	%rcx, 56(%rdx)
	movq	112(%rsp), %rcx
	movq	$0, 64(%rdx)
	movq	%rcx, 64(%rdx)
	movq	120(%rsp), %rcx
	movq	$0, 72(%rdx)
	movq	%rcx, 72(%rdx)
	movq	128(%rsp), %rcx
	movq	$0, 80(%rdx)
	movq	%rcx, 80(%rdx)
	movq	136(%rsp), %rcx
	movq	$0, 88(%rdx)
	movq	%rcx, 88(%rdx)
	movq	144(%rsp), %rcx
	movq	$0, 96(%rdx)
	movq	%rcx, 96(%rdx)
	movq	152(%rsp), %rcx
	movq	$0, 104(%rdx)
	movq	%rcx, 104(%rdx)
	movq	160(%rsp), %rcx
	movq	$0, 112(%rdx)
	movq	%rcx, 112(%rdx)
	movq	(%r13), %rcx
	movq	$0, (%rcx)
	movl	%r14d, %edx
	movq	%rdx, (%rcx)
	addq	$8, (%r13)
	movl	$48, %esi
	movq	%rax, %rdi
	movq	%r15, %rdx
	movl	%r12d, %ecx
	movq	%r13, %r8
	movq	24(%rsp), %rbx          # 8-byte Reload
	movq	%rbx, %r9
	callq	call_invoke_method
	cmpl	$1, %eax
	jne	.LBB20_8
# BB#9:                                 # %entry_ifend114
	movl	%r12d, %ebp
	movq	(%r15), %rax
	movq	$0, 48(%rsp)
	movq	%rax, 48(%rsp)
	movq	8(%r15), %rax
	movq	$0, 56(%rsp)
	movq	%rax, 56(%rsp)
	movq	16(%r15), %rax
	movq	$0, 64(%rsp)
	movq	%rax, 64(%rsp)
	movq	24(%r15), %rax
	movq	$0, 72(%rsp)
	movq	%rax, 72(%rsp)
	movq	32(%r15), %rax
	movq	$0, 80(%rsp)
	movq	%rax, 80(%rsp)
	movq	40(%r15), %rax
	movq	$0, 88(%rsp)
	movq	%rax, 88(%rsp)
	movq	48(%r15), %rax
	movq	$0, 96(%rsp)
	movq	%rax, 96(%rsp)
	movq	56(%r15), %rax
	movq	$0, 104(%rsp)
	movq	%rax, 104(%rsp)
	movq	64(%r15), %rax
	movq	$0, 112(%rsp)
	movq	%rax, 112(%rsp)
	movq	72(%r15), %rax
	movq	$0, 120(%rsp)
	movq	%rax, 120(%rsp)
	movq	80(%r15), %rax
	movq	$0, 128(%rsp)
	movq	%rax, 128(%rsp)
	movq	88(%r15), %rax
	movq	$0, 136(%rsp)
	movq	%rax, 136(%rsp)
	movq	96(%r15), %rax
	movq	$0, 144(%rsp)
	movq	%rax, 144(%rsp)
	movq	104(%r15), %rax
	movq	$0, 152(%rsp)
	movq	%rax, 152(%rsp)
	movq	112(%r15), %rax
	movq	$0, 160(%rsp)
	movq	%rax, 160(%rsp)
	movq	(%r13), %rax
	movq	-8(%rax), %rbx
	movl	%ebx, %edi
	callq	push_jit_object
	addq	$-8, (%r13)
	movq	%r13, %r14
	movq	$0, 96(%rsp)
	movq	%rbx, 96(%rsp)
	movl	$0, gSigInt(%rip)
	movq	$0, 104(%rsp)
	movq	$16, 104(%rsp)
	movl	$0, gSigInt(%rip)
	movl	$9552, %esi             # imm = 0x2550
	movq	240(%rsp), %rbx
	movq	%rbx, %rdi
	callq	get_class_with_load_and_initialize_in_jit
	testq	%rax, %rax
	je	.LBB20_1
# BB#10:                                # %entry_ifend153
	movq	%rax, %rdi
	callq	create_object
	movl	%eax, %r13d
	movl	%r13d, %edi
	callq	push_jit_object
	movl	104(%rsp), %r12d
	movl	$9564, %esi             # imm = 0x255C
	movq	%rbx, %rdi
	callq	get_class_with_load_and_initialize_in_jit
	testq	%rax, %rax
	je	.LBB20_1
# BB#11:                                # %entry_ifend157
	movq	48(%rsp), %rcx
	movq	32(%rsp), %rdx          # 8-byte Reload
	movq	$0, (%rdx)
	movq	%rcx, (%rdx)
	movq	56(%rsp), %rcx
	movq	$0, 8(%rdx)
	movq	%rcx, 8(%rdx)
	movq	64(%rsp), %rcx
	movq	$0, 16(%rdx)
	movq	%rcx, 16(%rdx)
	movq	72(%rsp), %rcx
	movq	$0, 24(%rdx)
	movq	%rcx, 24(%rdx)
	movq	80(%rsp), %rcx
	movq	$0, 32(%rdx)
	movq	%rcx, 32(%rdx)
	movq	88(%rsp), %rcx
	movq	$0, 40(%rdx)
	movq	%rcx, 40(%rdx)
	movq	96(%rsp), %rcx
	movq	$0, 48(%rdx)
	movq	%rcx, 48(%rdx)
	movq	104(%rsp), %rcx
	movq	$0, 56(%rdx)
	movq	%rcx, 56(%rdx)
	movq	112(%rsp), %rcx
	movq	$0, 64(%rdx)
	movq	%rcx, 64(%rdx)
	movq	120(%rsp), %rcx
	movq	$0, 72(%rdx)
	movq	%rcx, 72(%rdx)
	movq	128(%rsp), %rcx
	movq	$0, 80(%rdx)
	movq	%rcx, 80(%rdx)
	movq	136(%rsp), %rcx
	movq	$0, 88(%rdx)
	movq	%rcx, 88(%rdx)
	movq	144(%rsp), %rcx
	movq	$0, 96(%rdx)
	movq	%rcx, 96(%rdx)
	movq	152(%rsp), %rcx
	movq	$0, 104(%rdx)
	movq	%rcx, 104(%rdx)
	movq	160(%rsp), %rcx
	movq	$0, 112(%rdx)
	movq	%rcx, 112(%rdx)
	movq	(%r14), %rcx
	movq	$0, (%rcx)
	movl	%r13d, %edx
	movq	%rdx, (%rcx)
	movq	(%r14), %rcx
	leaq	8(%rcx), %rdx
	movq	%rdx, (%r14)
	movq	$0, 8(%rcx)
	movl	%r12d, %edx
	movq	%rdx, 8(%rcx)
	addq	$8, (%r14)
	xorl	%esi, %esi
	movq	%rax, %rdi
	movq	%r15, %rdx
	movl	%ebp, %ecx
	movq	%r14, %r8
	movq	24(%rsp), %rbx          # 8-byte Reload
	movq	%rbx, %r9
	callq	call_invoke_method
	cmpl	$1, %eax
	jne	.LBB20_8
# BB#12:                                # %entry_ifend197
	movq	(%r15), %rax
	movq	$0, 48(%rsp)
	movq	%rax, 48(%rsp)
	movq	8(%r15), %rax
	movq	$0, 56(%rsp)
	movq	%rax, 56(%rsp)
	movq	16(%r15), %rax
	movq	$0, 64(%rsp)
	movq	%rax, 64(%rsp)
	movq	24(%r15), %rax
	movq	$0, 72(%rsp)
	movq	%rax, 72(%rsp)
	movq	32(%r15), %rax
	movq	$0, 80(%rsp)
	movq	%rax, 80(%rsp)
	movq	40(%r15), %rax
	movq	$0, 88(%rsp)
	movq	%rax, 88(%rsp)
	movq	48(%r15), %rax
	movq	$0, 96(%rsp)
	movq	%rax, 96(%rsp)
	movq	56(%r15), %rax
	movq	$0, 104(%rsp)
	movq	%rax, 104(%rsp)
	movq	64(%r15), %rax
	movq	$0, 112(%rsp)
	movq	%rax, 112(%rsp)
	movq	72(%r15), %rax
	movq	$0, 120(%rsp)
	movq	%rax, 120(%rsp)
	movq	80(%r15), %rax
	movq	$0, 128(%rsp)
	movq	%rax, 128(%rsp)
	movq	88(%r15), %rax
	movq	$0, 136(%rsp)
	movq	%rax, 136(%rsp)
	movq	96(%r15), %rax
	movq	$0, 144(%rsp)
	movq	%rax, 144(%rsp)
	movq	104(%r15), %rax
	movq	$0, 152(%rsp)
	movq	%rax, 152(%rsp)
	movq	112(%r15), %rax
	movq	%r15, %r12
	movq	$0, 160(%rsp)
	movq	%rax, 160(%rsp)
	movq	(%r14), %rax
	movq	-8(%rax), %rbx
	movl	%ebx, %edi
	callq	push_jit_object
	addq	$-8, (%r14)
	movq	%r14, 16(%rsp)          # 8-byte Spill
	movq	$0, 112(%rsp)
	movq	%rbx, 112(%rsp)
	movl	$0, gSigInt(%rip)
	movq	240(%rsp), %rbp
.LBB20_13:                              # %entry_condend
                                        # =>This Loop Header: Depth=1
                                        #     Child Loop BB20_82 Depth 2
	movl	$0, gSigInt(%rip)
	movl	56(%rsp), %ebx
	movl	96(%rsp), %r13d
	movl	88(%rsp), %r14d
	movl	104(%rsp), %eax
	movl	%eax, (%rsp)            # 4-byte Spill
	movl	112(%rsp), %eax
	movl	%eax, 8(%rsp)           # 4-byte Spill
	movl	$9644, %esi             # imm = 0x25AC
	movq	%rbp, %rdi
	callq	get_class_with_load_and_initialize_in_jit
	testq	%rax, %rax
	je	.LBB20_1
# BB#14:                                # %entry_ifend241
                                        #   in Loop: Header=BB20_13 Depth=1
	movq	%rbp, %r15
	movq	48(%rsp), %rcx
	movq	32(%rsp), %rdx          # 8-byte Reload
	movq	$0, (%rdx)
	movq	%rcx, (%rdx)
	movq	56(%rsp), %rcx
	movq	$0, 8(%rdx)
	movq	%rcx, 8(%rdx)
	movq	64(%rsp), %rcx
	movq	$0, 16(%rdx)
	movq	%rcx, 16(%rdx)
	movq	72(%rsp), %rcx
	movq	$0, 24(%rdx)
	movq	%rcx, 24(%rdx)
	movq	80(%rsp), %rcx
	movq	$0, 32(%rdx)
	movq	%rcx, 32(%rdx)
	movq	88(%rsp), %rcx
	movq	$0, 40(%rdx)
	movq	%rcx, 40(%rdx)
	movq	96(%rsp), %rcx
	movq	$0, 48(%rdx)
	movq	%rcx, 48(%rdx)
	movq	104(%rsp), %rcx
	movq	$0, 56(%rdx)
	movq	%rcx, 56(%rdx)
	movq	112(%rsp), %rcx
	movq	$0, 64(%rdx)
	movq	%rcx, 64(%rdx)
	movq	120(%rsp), %rcx
	movq	$0, 72(%rdx)
	movq	%rcx, 72(%rdx)
	movq	128(%rsp), %rcx
	movq	$0, 80(%rdx)
	movq	%rcx, 80(%rdx)
	movq	136(%rsp), %rcx
	movq	$0, 88(%rdx)
	movq	%rcx, 88(%rdx)
	movq	144(%rsp), %rcx
	movq	$0, 96(%rdx)
	movq	%rcx, 96(%rdx)
	movq	152(%rsp), %rcx
	movq	$0, 104(%rdx)
	movq	%rcx, 104(%rdx)
	movq	160(%rsp), %rcx
	movq	$0, 112(%rdx)
	movq	%rcx, 112(%rdx)
	movq	16(%rsp), %rsi          # 8-byte Reload
	movq	(%rsi), %rcx
	movq	$0, (%rcx)
	movl	%ebx, %edx
	movq	%rdx, (%rcx)
	movq	(%rsi), %rcx
	leaq	8(%rcx), %rdx
	movq	%rdx, (%rsi)
	movq	$0, 8(%rcx)
	movl	%r13d, %edx
	movq	%rsi, %rbp
	movq	%rdx, 8(%rcx)
	movq	(%rbp), %rcx
	leaq	8(%rcx), %rdx
	movq	%rdx, (%rbp)
	movq	$0, 8(%rcx)
	movl	%r14d, %edx
	movq	%rdx, 8(%rcx)
	movq	(%rbp), %rcx
	leaq	8(%rcx), %rdx
	movq	%rdx, (%rbp)
	movq	$0, 8(%rcx)
	movl	(%rsp), %edx            # 4-byte Reload
	movq	%rdx, 8(%rcx)
	movq	(%rbp), %rcx
	leaq	8(%rcx), %rdx
	movq	%rdx, (%rbp)
	movq	$0, 8(%rcx)
	movl	8(%rsp), %edx           # 4-byte Reload
	movq	%rdx, 8(%rcx)
	addq	$8, (%rbp)
	movl	$25, %esi
	movq	%rax, %rdi
	movq	%r12, %rdx
	movl	44(%rsp), %ecx          # 4-byte Reload
	movq	%rbp, %r8
	movq	24(%rsp), %rbx          # 8-byte Reload
	movq	%rbx, %r9
	callq	call_invoke_method
	cmpl	$1, %eax
	jne	.LBB20_8
# BB#15:                                # %entry_ifend290
                                        #   in Loop: Header=BB20_13 Depth=1
	movq	(%r12), %rax
	movq	$0, 48(%rsp)
	movq	%rax, 48(%rsp)
	movq	8(%r12), %rax
	movq	$0, 56(%rsp)
	movq	%rax, 56(%rsp)
	movq	16(%r12), %rax
	movq	$0, 64(%rsp)
	movq	%rax, 64(%rsp)
	movq	24(%r12), %rax
	movq	$0, 72(%rsp)
	movq	%rax, 72(%rsp)
	movq	32(%r12), %rax
	movq	$0, 80(%rsp)
	movq	%rax, 80(%rsp)
	movq	40(%r12), %rax
	movq	$0, 88(%rsp)
	movq	%rax, 88(%rsp)
	movq	48(%r12), %rax
	movq	$0, 96(%rsp)
	movq	%rax, 96(%rsp)
	movq	56(%r12), %rax
	movq	$0, 104(%rsp)
	movq	%rax, 104(%rsp)
	movq	64(%r12), %rax
	movq	$0, 112(%rsp)
	movq	%rax, 112(%rsp)
	movq	72(%r12), %rax
	movq	$0, 120(%rsp)
	movq	%rax, 120(%rsp)
	movq	80(%r12), %rax
	movq	$0, 128(%rsp)
	movq	%rax, 128(%rsp)
	movq	88(%r12), %rax
	movq	$0, 136(%rsp)
	movq	%rax, 136(%rsp)
	movq	96(%r12), %rax
	movq	$0, 144(%rsp)
	movq	%rax, 144(%rsp)
	movq	104(%r12), %rax
	movq	$0, 152(%rsp)
	movq	%rax, 152(%rsp)
	movq	112(%r12), %rax
	movq	$0, 160(%rsp)
	movq	%rax, 160(%rsp)
	movq	(%rbp), %rax
	movq	-8(%rax), %rbx
	movl	%ebx, %edi
	callq	push_jit_object
	addq	$-8, (%rbp)
	movq	%rbp, %r14
	movq	$0, 120(%rsp)
	movq	%rbx, 120(%rsp)
	movl	$0, gSigInt(%rip)
	cmpl	$1, %ebx
	sete	%al
	movq	$0, 168(%rsp)
	movzbl	%al, %eax
	movq	%rax, 168(%rsp)
	je	.LBB20_19
# BB#16:                                # %entry_condnotend
                                        #   in Loop: Header=BB20_13 Depth=1
	cmpl	$0, 72(%rsp)
	sete	%al
	movq	$0, 176(%rsp)
	movzbl	%al, %eax
	movq	%rax, 176(%rsp)
	jne	.LBB20_18
# BB#17:                                # %entry_condend334
                                        #   in Loop: Header=BB20_13 Depth=1
	testl	%ebx, %ebx
	setg	%al
	movzbl	%al, %eax
	movq	%rax, 176(%rsp)
.LBB20_18:                              # %label_and_endpointzzzzzzzzzzzzzzzzzzb
                                        #   in Loop: Header=BB20_13 Depth=1
	movq	%rax, 168(%rsp)
.LBB20_19:                              # %label_or_endpointzzzzzzzzzzzzzzzzzz
                                        #   in Loop: Header=BB20_13 Depth=1
	testq	%rax, %rax
	je	.LBB20_61
# BB#20:                                # %entry_condend339
                                        #   in Loop: Header=BB20_13 Depth=1
	movl	$0, gSigInt(%rip)
	movl	96(%rsp), %r13d
	movl	88(%rsp), %eax
	movl	%eax, 8(%rsp)           # 4-byte Spill
	movl	112(%rsp), %r8d
	xorl	%r9d, %r9d
	movq	%r14, %rdi
	movq	%r12, %rsi
	movl	44(%rsp), %edx          # 4-byte Reload
	movq	24(%rsp), %rcx          # 8-byte Reload
	callq	get_field_from_object
	cmpl	$0, 8(%rax)
	movq	%r15, %rbp
	je	.LBB20_1
# BB#21:                                # %entry_ifend345
                                        #   in Loop: Header=BB20_13 Depth=1
	movq	(%rax), %r8
	xorl	%r9d, %r9d
	movq	%r14, %rdi
	movq	%r12, %rsi
	movl	44(%rsp), %edx          # 4-byte Reload
	movq	24(%rsp), %rcx          # 8-byte Reload
	callq	load_element
	cmpl	$0, 8(%rax)
	je	.LBB20_1
# BB#22:                                # %entry_ifend348
                                        #   in Loop: Header=BB20_13 Depth=1
	movq	(%rax), %rbx
	movl	$9836, %esi             # imm = 0x266C
	movq	%rbp, %rdi
	callq	get_class_with_load_and_initialize_in_jit
	testq	%rax, %rax
	je	.LBB20_1
# BB#23:                                # %entry_ifend351
                                        #   in Loop: Header=BB20_13 Depth=1
	movq	%rbp, %r15
	movq	48(%rsp), %rcx
	movq	32(%rsp), %rdx          # 8-byte Reload
	movq	$0, (%rdx)
	movq	%rcx, (%rdx)
	movq	56(%rsp), %rcx
	movq	$0, 8(%rdx)
	movq	%rcx, 8(%rdx)
	movq	64(%rsp), %rcx
	movq	$0, 16(%rdx)
	movq	%rcx, 16(%rdx)
	movq	72(%rsp), %rcx
	movq	$0, 24(%rdx)
	movq	%rcx, 24(%rdx)
	movq	80(%rsp), %rcx
	movq	$0, 32(%rdx)
	movq	%rcx, 32(%rdx)
	movq	88(%rsp), %rcx
	movq	$0, 40(%rdx)
	movq	%rcx, 40(%rdx)
	movq	96(%rsp), %rcx
	movq	$0, 48(%rdx)
	movq	%rcx, 48(%rdx)
	movq	104(%rsp), %rcx
	movq	$0, 56(%rdx)
	movq	%rcx, 56(%rdx)
	movq	112(%rsp), %rcx
	movq	$0, 64(%rdx)
	movq	%rcx, 64(%rdx)
	movq	120(%rsp), %rcx
	movq	$0, 72(%rdx)
	movq	%rcx, 72(%rdx)
	movq	128(%rsp), %rcx
	movq	$0, 80(%rdx)
	movq	%rcx, 80(%rdx)
	movq	136(%rsp), %rcx
	movq	$0, 88(%rdx)
	movq	%rcx, 88(%rdx)
	movq	144(%rsp), %rcx
	movq	$0, 96(%rdx)
	movq	%rcx, 96(%rdx)
	movq	152(%rsp), %rcx
	movq	$0, 104(%rdx)
	movq	%rcx, 104(%rdx)
	movq	160(%rsp), %rcx
	movq	$0, 112(%rdx)
	movq	%rcx, 112(%rdx)
	movq	(%r14), %rcx
	movq	$0, (%rcx)
	movl	%r13d, %edx
	movq	%rdx, (%rcx)
	movq	(%r14), %rcx
	leaq	8(%rcx), %rdx
	movq	%rdx, (%r14)
	movq	$0, 8(%rcx)
	movl	8(%rsp), %edx           # 4-byte Reload
	movq	%rdx, 8(%rcx)
	movq	(%r14), %rcx
	leaq	8(%rcx), %rdx
	movq	%rdx, (%r14)
	movq	$0, 8(%rcx)
	movl	%ebx, %edx
	movq	%rdx, 8(%rcx)
	addq	$8, (%r14)
	movl	$11, %esi
	movq	%rax, %rdi
	movq	%r12, %rdx
	movl	44(%rsp), %ebp          # 4-byte Reload
	movl	%ebp, %ecx
	movq	%r14, %r8
	movq	24(%rsp), %rbx          # 8-byte Reload
	movq	%rbx, %r9
	callq	call_invoke_method
	cmpl	$1, %eax
	jne	.LBB20_8
# BB#24:                                # %entry_ifend394
                                        #   in Loop: Header=BB20_13 Depth=1
	movq	(%r12), %rax
	movq	$0, 48(%rsp)
	movq	%rax, 48(%rsp)
	movq	8(%r12), %rax
	movq	$0, 56(%rsp)
	movq	%rax, 56(%rsp)
	movq	16(%r12), %rax
	movq	$0, 64(%rsp)
	movq	%rax, 64(%rsp)
	movq	24(%r12), %rax
	movq	$0, 72(%rsp)
	movq	%rax, 72(%rsp)
	movq	32(%r12), %rax
	movq	$0, 80(%rsp)
	movq	%rax, 80(%rsp)
	movq	40(%r12), %rax
	movq	$0, 88(%rsp)
	movq	%rax, 88(%rsp)
	movq	48(%r12), %rax
	movq	$0, 96(%rsp)
	movq	%rax, 96(%rsp)
	movq	56(%r12), %rax
	movq	$0, 104(%rsp)
	movq	%rax, 104(%rsp)
	movq	64(%r12), %rax
	movq	$0, 112(%rsp)
	movq	%rax, 112(%rsp)
	movq	72(%r12), %rax
	movq	$0, 120(%rsp)
	movq	%rax, 120(%rsp)
	movq	80(%r12), %rax
	movq	$0, 128(%rsp)
	movq	%rax, 128(%rsp)
	movq	88(%r12), %rax
	movq	$0, 136(%rsp)
	movq	%rax, 136(%rsp)
	movq	96(%r12), %rax
	movq	$0, 144(%rsp)
	movq	%rax, 144(%rsp)
	movq	104(%r12), %rax
	movq	$0, 152(%rsp)
	movq	%rax, 152(%rsp)
	movq	112(%r12), %rax
	movq	$0, 160(%rsp)
	movq	%rax, 160(%rsp)
	movq	(%r14), %rax
	movq	-8(%rax), %r13
	movl	%r13d, %edi
	callq	push_jit_object
	addq	$-8, (%r14)
	movl	$9844, %esi             # imm = 0x2674
	movq	%r15, %rdi
	callq	get_class_with_load_and_initialize_in_jit
	testq	%rax, %rax
	je	.LBB20_1
# BB#25:                                # %entry_ifend433
                                        #   in Loop: Header=BB20_13 Depth=1
	movq	48(%rsp), %rcx
	movq	32(%rsp), %r15          # 8-byte Reload
	movq	$0, (%r15)
	movq	%rcx, (%r15)
	movq	56(%rsp), %rcx
	movq	$0, 8(%r15)
	movq	%rcx, 8(%r15)
	movq	64(%rsp), %rcx
	movq	$0, 16(%r15)
	movq	%rcx, 16(%r15)
	movq	72(%rsp), %rcx
	movq	$0, 24(%r15)
	movq	%rcx, 24(%r15)
	movq	80(%rsp), %rcx
	movq	$0, 32(%r15)
	movq	%rcx, 32(%r15)
	movq	88(%rsp), %rcx
	movq	$0, 40(%r15)
	movq	%rcx, 40(%r15)
	movq	96(%rsp), %rcx
	movq	$0, 48(%r15)
	movq	%rcx, 48(%r15)
	movq	104(%rsp), %rcx
	movq	$0, 56(%r15)
	movq	%rcx, 56(%r15)
	movq	112(%rsp), %rcx
	movq	$0, 64(%r15)
	movq	%rcx, 64(%r15)
	movq	120(%rsp), %rcx
	movq	$0, 72(%r15)
	movq	%rcx, 72(%r15)
	movq	128(%rsp), %rcx
	movq	$0, 80(%r15)
	movq	%rcx, 80(%r15)
	movq	136(%rsp), %rcx
	movq	$0, 88(%r15)
	movq	%rcx, 88(%r15)
	movq	144(%rsp), %rcx
	movq	$0, 96(%r15)
	movq	%rcx, 96(%r15)
	movq	152(%rsp), %rcx
	movq	$0, 104(%r15)
	movq	%rcx, 104(%r15)
	movq	160(%rsp), %rcx
	movq	$0, 112(%r15)
	movq	%rcx, 112(%r15)
	movq	(%r14), %rcx
	movq	$0, (%rcx)
	movq	%r13, (%rcx)
	addq	$8, (%r14)
	movl	$10, %esi
	movq	%rax, %rdi
	movq	%r12, %rdx
	movl	%ebp, %ecx
	movq	%r14, %r8
	movq	%rbx, %r9
	callq	call_invoke_method
	cmpl	$1, %eax
	jne	.LBB20_8
# BB#26:                                # %entry_ifend470
                                        #   in Loop: Header=BB20_13 Depth=1
	movq	(%r12), %rax
	movq	$0, 48(%rsp)
	movq	%rax, 48(%rsp)
	movq	8(%r12), %rax
	movq	$0, 56(%rsp)
	movq	%rax, 56(%rsp)
	movq	16(%r12), %rax
	movq	$0, 64(%rsp)
	movq	%rax, 64(%rsp)
	movq	24(%r12), %rax
	movq	$0, 72(%rsp)
	movq	%rax, 72(%rsp)
	movq	32(%r12), %rax
	movq	$0, 80(%rsp)
	movq	%rax, 80(%rsp)
	movq	40(%r12), %rax
	movq	$0, 88(%rsp)
	movq	%rax, 88(%rsp)
	movq	48(%r12), %rax
	movq	$0, 96(%rsp)
	movq	%rax, 96(%rsp)
	movq	56(%r12), %rax
	movq	$0, 104(%rsp)
	movq	%rax, 104(%rsp)
	movq	64(%r12), %rax
	movq	$0, 112(%rsp)
	movq	%rax, 112(%rsp)
	movq	72(%r12), %rax
	movq	$0, 120(%rsp)
	movq	%rax, 120(%rsp)
	movq	80(%r12), %rax
	movq	$0, 128(%rsp)
	movq	%rax, 128(%rsp)
	movq	88(%r12), %rax
	movq	$0, 136(%rsp)
	movq	%rax, 136(%rsp)
	movq	96(%r12), %rax
	movq	$0, 144(%rsp)
	movq	%rax, 144(%rsp)
	movq	104(%r12), %rax
	movq	$0, 152(%rsp)
	movq	%rax, 152(%rsp)
	movq	112(%r12), %rax
	movq	$0, 160(%rsp)
	movq	%rax, 160(%rsp)
	movq	(%r14), %rax
	movq	-8(%rax), %r13
	movl	%r13d, %edi
	callq	push_jit_object
	addq	$-8, (%r14)
	movq	$0, 128(%rsp)
	movq	%r13, 128(%rsp)
	movl	$0, gSigInt(%rip)
	movl	80(%rsp), %ebx
	movl	$9852, %esi             # imm = 0x267C
	movq	240(%rsp), %rdi
	callq	get_class_with_load_and_initialize_in_jit
	testq	%rax, %rax
	je	.LBB20_1
# BB#27:                                # %entry_ifend511
                                        #   in Loop: Header=BB20_13 Depth=1
	movq	48(%rsp), %rcx
	movq	$0, (%r15)
	movq	%rcx, (%r15)
	movq	56(%rsp), %rcx
	movq	$0, 8(%r15)
	movq	%rcx, 8(%r15)
	movq	64(%rsp), %rcx
	movq	$0, 16(%r15)
	movq	%rcx, 16(%r15)
	movq	72(%rsp), %rcx
	movq	$0, 24(%r15)
	movq	%rcx, 24(%r15)
	movq	80(%rsp), %rcx
	movq	$0, 32(%r15)
	movq	%rcx, 32(%r15)
	movq	88(%rsp), %rcx
	movq	$0, 40(%r15)
	movq	%rcx, 40(%r15)
	movq	96(%rsp), %rcx
	movq	$0, 48(%r15)
	movq	%rcx, 48(%r15)
	movq	104(%rsp), %rcx
	movq	$0, 56(%r15)
	movq	%rcx, 56(%r15)
	movq	112(%rsp), %rcx
	movq	$0, 64(%r15)
	movq	%rcx, 64(%r15)
	movq	120(%rsp), %rcx
	movq	$0, 72(%r15)
	movq	%rcx, 72(%r15)
	movq	128(%rsp), %rcx
	movq	$0, 80(%r15)
	movq	%rcx, 80(%r15)
	movq	136(%rsp), %rcx
	movq	$0, 88(%r15)
	movq	%rcx, 88(%r15)
	movq	144(%rsp), %rcx
	movq	$0, 96(%r15)
	movq	%rcx, 96(%r15)
	movq	152(%rsp), %rcx
	movq	$0, 104(%r15)
	movq	%rcx, 104(%r15)
	movq	160(%rsp), %rcx
	movq	$0, 112(%r15)
	movq	%rcx, 112(%r15)
	movq	(%r14), %rcx
	movq	$0, (%rcx)
	movl	%ebx, %edx
	movq	%rdx, (%rcx)
	movq	(%r14), %rcx
	leaq	8(%rcx), %rdx
	movq	%rdx, (%r14)
	movq	$0, 8(%rcx)
	movl	%r13d, %edx
	movq	%r14, %rbx
	movq	%rdx, 8(%rcx)
	addq	$8, (%rbx)
	movl	$8, %esi
	movq	%rax, %rdi
	movq	%r12, %rdx
	movl	%ebp, %ecx
	movq	%rbx, %r8
	movq	24(%rsp), %r13          # 8-byte Reload
	movq	%r13, %r9
	callq	call_invoke_method
	cmpl	$1, %eax
	jne	.LBB20_28
# BB#29:                                # %entry_ifend551
                                        #   in Loop: Header=BB20_13 Depth=1
	movq	(%r12), %rax
	movq	$0, 48(%rsp)
	movq	%rax, 48(%rsp)
	movq	8(%r12), %rax
	movq	$0, 56(%rsp)
	movq	%rax, 56(%rsp)
	movq	16(%r12), %rax
	movq	$0, 64(%rsp)
	movq	%rax, 64(%rsp)
	movq	24(%r12), %rax
	movq	$0, 72(%rsp)
	movq	%rax, 72(%rsp)
	movq	32(%r12), %rax
	movq	$0, 80(%rsp)
	movq	%rax, 80(%rsp)
	movq	40(%r12), %rax
	movq	$0, 88(%rsp)
	movq	%rax, 88(%rsp)
	movq	48(%r12), %rax
	movq	$0, 96(%rsp)
	movq	%rax, 96(%rsp)
	movq	56(%r12), %rax
	movq	$0, 104(%rsp)
	movq	%rax, 104(%rsp)
	movq	64(%r12), %rax
	movq	$0, 112(%rsp)
	movq	%rax, 112(%rsp)
	movq	72(%r12), %rax
	movq	$0, 120(%rsp)
	movq	%rax, 120(%rsp)
	movq	80(%r12), %rax
	movq	$0, 128(%rsp)
	movq	%rax, 128(%rsp)
	movq	88(%r12), %rax
	movq	$0, 136(%rsp)
	movq	%rax, 136(%rsp)
	movq	96(%r12), %rax
	movq	$0, 144(%rsp)
	movq	%rax, 144(%rsp)
	movq	104(%r12), %rax
	movq	$0, 152(%rsp)
	movq	%rax, 152(%rsp)
	movq	112(%r12), %rax
	movq	$0, 160(%rsp)
	movq	%rax, 160(%rsp)
	movq	(%rbx), %rax
	movl	-8(%rax), %edi
	callq	push_jit_object
	addq	$-8, (%rbx)
	movl	$0, gSigInt(%rip)
	movl	96(%rsp), %eax
	movl	%eax, 8(%rsp)           # 4-byte Spill
	movl	112(%rsp), %r8d
	xorl	%r9d, %r9d
	movq	%rbx, %rdi
	movq	%r12, %r15
	movq	%rbx, %r14
	movq	%r15, %rsi
	movl	%ebp, %edx
	movq	%r13, %rcx
	callq	get_field_from_object
	cmpl	$0, 8(%rax)
	movq	240(%rsp), %rbp
	je	.LBB20_1
# BB#30:                                # %entry_ifend592
                                        #   in Loop: Header=BB20_13 Depth=1
	movq	(%rax), %r8
	xorl	%r9d, %r9d
	movq	%r14, %rdi
	movq	%r15, %rsi
	movl	44(%rsp), %edx          # 4-byte Reload
	movq	%r13, %rcx
	callq	load_element
	cmpl	$0, 8(%rax)
	je	.LBB20_1
# BB#31:                                # %entry_ifend596
                                        #   in Loop: Header=BB20_13 Depth=1
	movq	(%rax), %rax
	movq	%rax, (%rsp)            # 8-byte Spill
	movl	112(%rsp), %r8d
	movl	$1, %r9d
	movq	%r14, %rdi
	movq	%r15, %rsi
	movl	44(%rsp), %edx          # 4-byte Reload
	movq	%r13, %rcx
	callq	get_field_from_object
	cmpl	$0, 8(%rax)
	je	.LBB20_1
# BB#32:                                # %entry_ifend600
                                        #   in Loop: Header=BB20_13 Depth=1
	movq	(%rax), %r8
	xorl	%r9d, %r9d
	movq	%r14, %rdi
	movq	%r15, %rsi
	movl	44(%rsp), %edx          # 4-byte Reload
	movq	%r13, %rcx
	callq	load_element
	cmpl	$0, 8(%rax)
	je	.LBB20_1
# BB#33:                                # %entry_ifend604
                                        #   in Loop: Header=BB20_13 Depth=1
	movq	(%rax), %rbx
	movl	$9860, %esi             # imm = 0x2684
	movq	%rbp, %rdi
	callq	get_class_with_load_and_initialize_in_jit
	testq	%rax, %rax
	je	.LBB20_1
# BB#34:                                # %entry_ifend607
                                        #   in Loop: Header=BB20_13 Depth=1
	movq	48(%rsp), %rcx
	movq	32(%rsp), %r12          # 8-byte Reload
	movq	$0, (%r12)
	movq	%rcx, (%r12)
	movq	56(%rsp), %rcx
	movq	$0, 8(%r12)
	movq	%rcx, 8(%r12)
	movq	64(%rsp), %rcx
	movq	$0, 16(%r12)
	movq	%rcx, 16(%r12)
	movq	72(%rsp), %rcx
	movq	$0, 24(%r12)
	movq	%rcx, 24(%r12)
	movq	80(%rsp), %rcx
	movq	$0, 32(%r12)
	movq	%rcx, 32(%r12)
	movq	88(%rsp), %rcx
	movq	$0, 40(%r12)
	movq	%rcx, 40(%r12)
	movq	96(%rsp), %rcx
	movq	$0, 48(%r12)
	movq	%rcx, 48(%r12)
	movq	104(%rsp), %rcx
	movq	$0, 56(%r12)
	movq	%rcx, 56(%r12)
	movq	112(%rsp), %rcx
	movq	$0, 64(%r12)
	movq	%rcx, 64(%r12)
	movq	120(%rsp), %rcx
	movq	$0, 72(%r12)
	movq	%rcx, 72(%r12)
	movq	128(%rsp), %rcx
	movq	$0, 80(%r12)
	movq	%rcx, 80(%r12)
	movq	136(%rsp), %rcx
	movq	$0, 88(%r12)
	movq	%rcx, 88(%r12)
	movq	144(%rsp), %rcx
	movq	$0, 96(%r12)
	movq	%rcx, 96(%r12)
	movq	152(%rsp), %rcx
	movq	$0, 104(%r12)
	movq	%rcx, 104(%r12)
	movq	160(%rsp), %rcx
	movq	$0, 112(%r12)
	movq	%rcx, 112(%r12)
	movq	%r14, %rbp
	movq	(%rbp), %rcx
	movq	$0, (%rcx)
	movl	8(%rsp), %edx           # 4-byte Reload
	movq	%rdx, (%rcx)
	movq	(%rbp), %rcx
	leaq	8(%rcx), %rdx
	movq	%rdx, (%rbp)
	movq	$0, 8(%rcx)
	movq	(%rsp), %rdx            # 8-byte Reload
	movl	%edx, %edx
	movq	%rdx, 8(%rcx)
	movq	(%rbp), %rcx
	leaq	8(%rcx), %rdx
	movq	%rdx, (%rbp)
	movq	$0, 8(%rcx)
	movl	%ebx, %edx
	movq	%rdx, 8(%rcx)
	addq	$8, (%rbp)
	movl	$11, %esi
	movq	%rax, %rdi
	movq	%r15, %rdx
	movl	44(%rsp), %ecx          # 4-byte Reload
	movq	%rbp, %r8
	movq	%r13, %r9
	callq	call_invoke_method
	cmpl	$1, %eax
	movq	%r15, %r14
	jne	.LBB20_28
# BB#35:                                # %entry_ifend650
                                        #   in Loop: Header=BB20_13 Depth=1
	movq	%r13, %rbx
	movq	(%r14), %rax
	movq	$0, 48(%rsp)
	movq	%rax, 48(%rsp)
	movq	8(%r14), %rax
	movq	$0, 56(%rsp)
	movq	%rax, 56(%rsp)
	movq	16(%r14), %rax
	movq	$0, 64(%rsp)
	movq	%rax, 64(%rsp)
	movq	24(%r14), %rax
	movq	$0, 72(%rsp)
	movq	%rax, 72(%rsp)
	movq	32(%r14), %rax
	movq	$0, 80(%rsp)
	movq	%rax, 80(%rsp)
	movq	40(%r14), %rax
	movq	$0, 88(%rsp)
	movq	%rax, 88(%rsp)
	movq	48(%r14), %rax
	movq	$0, 96(%rsp)
	movq	%rax, 96(%rsp)
	movq	56(%r14), %rax
	movq	$0, 104(%rsp)
	movq	%rax, 104(%rsp)
	movq	64(%r14), %rax
	movq	$0, 112(%rsp)
	movq	%rax, 112(%rsp)
	movq	72(%r14), %rax
	movq	$0, 120(%rsp)
	movq	%rax, 120(%rsp)
	movq	80(%r14), %rax
	movq	$0, 128(%rsp)
	movq	%rax, 128(%rsp)
	movq	88(%r14), %rax
	movq	$0, 136(%rsp)
	movq	%rax, 136(%rsp)
	movq	96(%r14), %rax
	movq	$0, 144(%rsp)
	movq	%rax, 144(%rsp)
	movq	104(%r14), %rax
	movq	$0, 152(%rsp)
	movq	%rax, 152(%rsp)
	movq	112(%r14), %rax
	movq	$0, 160(%rsp)
	movq	%rax, 160(%rsp)
	movq	(%rbp), %rax
	movq	-8(%rax), %r15
	movl	%r15d, %edi
	callq	push_jit_object
	addq	$-8, (%rbp)
	movl	$9868, %esi             # imm = 0x268C
	movq	%r14, %r13
	movq	240(%rsp), %rdi
	callq	get_class_with_load_and_initialize_in_jit
	testq	%rax, %rax
	je	.LBB20_1
# BB#36:                                # %entry_ifend689
                                        #   in Loop: Header=BB20_13 Depth=1
	movq	48(%rsp), %rcx
	movq	$0, (%r12)
	movq	%rcx, (%r12)
	movq	56(%rsp), %rcx
	movq	$0, 8(%r12)
	movq	%rcx, 8(%r12)
	movq	64(%rsp), %rcx
	movq	$0, 16(%r12)
	movq	%rcx, 16(%r12)
	movq	72(%rsp), %rcx
	movq	$0, 24(%r12)
	movq	%rcx, 24(%r12)
	movq	80(%rsp), %rcx
	movq	$0, 32(%r12)
	movq	%rcx, 32(%r12)
	movq	88(%rsp), %rcx
	movq	$0, 40(%r12)
	movq	%rcx, 40(%r12)
	movq	96(%rsp), %rcx
	movq	$0, 48(%r12)
	movq	%rcx, 48(%r12)
	movq	104(%rsp), %rcx
	movq	$0, 56(%r12)
	movq	%rcx, 56(%r12)
	movq	112(%rsp), %rcx
	movq	$0, 64(%r12)
	movq	%rcx, 64(%r12)
	movq	120(%rsp), %rcx
	movq	$0, 72(%r12)
	movq	%rcx, 72(%r12)
	movq	128(%rsp), %rcx
	movq	$0, 80(%r12)
	movq	%rcx, 80(%r12)
	movq	136(%rsp), %rcx
	movq	$0, 88(%r12)
	movq	%rcx, 88(%r12)
	movq	144(%rsp), %rcx
	movq	$0, 96(%r12)
	movq	%rcx, 96(%r12)
	movq	152(%rsp), %rcx
	movq	$0, 104(%r12)
	movq	%rcx, 104(%r12)
	movq	160(%rsp), %rcx
	movq	$0, 112(%r12)
	movq	%rcx, 112(%r12)
	movq	%rbp, %r14
	movq	(%r14), %rcx
	movq	$0, (%rcx)
	movq	%r15, (%rcx)
	addq	$8, (%r14)
	movl	$10, %esi
	movq	%rax, %rdi
	movq	%r13, %rdx
	movl	44(%rsp), %ebp          # 4-byte Reload
	movl	%ebp, %ecx
	movq	%r14, %r8
	movq	%rbx, %r9
	callq	call_invoke_method
	cmpl	$1, %eax
	jne	.LBB20_8
# BB#37:                                # %entry_ifend726
                                        #   in Loop: Header=BB20_13 Depth=1
	movq	(%r13), %rax
	movq	$0, 48(%rsp)
	movq	%rax, 48(%rsp)
	movq	8(%r13), %rax
	movq	$0, 56(%rsp)
	movq	%rax, 56(%rsp)
	movq	16(%r13), %rax
	movq	$0, 64(%rsp)
	movq	%rax, 64(%rsp)
	movq	24(%r13), %rax
	movq	$0, 72(%rsp)
	movq	%rax, 72(%rsp)
	movq	32(%r13), %rax
	movq	$0, 80(%rsp)
	movq	%rax, 80(%rsp)
	movq	40(%r13), %rax
	movq	$0, 88(%rsp)
	movq	%rax, 88(%rsp)
	movq	48(%r13), %rax
	movq	$0, 96(%rsp)
	movq	%rax, 96(%rsp)
	movq	56(%r13), %rax
	movq	$0, 104(%rsp)
	movq	%rax, 104(%rsp)
	movq	64(%r13), %rax
	movq	$0, 112(%rsp)
	movq	%rax, 112(%rsp)
	movq	72(%r13), %rax
	movq	$0, 120(%rsp)
	movq	%rax, 120(%rsp)
	movq	80(%r13), %rax
	movq	$0, 128(%rsp)
	movq	%rax, 128(%rsp)
	movq	88(%r13), %rax
	movq	$0, 136(%rsp)
	movq	%rax, 136(%rsp)
	movq	96(%r13), %rax
	movq	$0, 144(%rsp)
	movq	%rax, 144(%rsp)
	movq	104(%r13), %rax
	movq	$0, 152(%rsp)
	movq	%rax, 152(%rsp)
	movq	112(%r13), %rax
	movq	$0, 160(%rsp)
	movq	%rax, 160(%rsp)
	movq	(%r14), %rax
	movq	-8(%rax), %rbx
	movq	%rbx, 8(%rsp)           # 8-byte Spill
	movl	%ebx, %edi
	callq	push_jit_object
	addq	$-8, (%r14)
	movq	$0, 136(%rsp)
	movq	%rbx, 136(%rsp)
	movl	$0, gSigInt(%rip)
	movl	64(%rsp), %eax
	movl	%eax, (%rsp)            # 4-byte Spill
	movl	$9876, %esi             # imm = 0x2694
	movq	240(%rsp), %rbx
	movq	%rbx, %rdi
	callq	get_class_with_load_and_initialize_in_jit
	testq	%rax, %rax
	je	.LBB20_1
# BB#38:                                # %entry_ifend767
                                        #   in Loop: Header=BB20_13 Depth=1
	movq	%rax, %rdi
	callq	create_object
	movl	%eax, %r15d
	movl	%r15d, %edi
	callq	push_jit_object
	movl	$9892, %esi             # imm = 0x26A4
	movq	%rbx, %rdi
	callq	get_class_with_load_and_initialize_in_jit
	testq	%rax, %rax
	je	.LBB20_1
# BB#39:                                # %entry_ifend770
                                        #   in Loop: Header=BB20_13 Depth=1
	movq	48(%rsp), %rcx
	movq	$0, (%r12)
	movq	%rcx, (%r12)
	movq	56(%rsp), %rcx
	movq	$0, 8(%r12)
	movq	%rcx, 8(%r12)
	movq	64(%rsp), %rcx
	movq	$0, 16(%r12)
	movq	%rcx, 16(%r12)
	movq	72(%rsp), %rcx
	movq	$0, 24(%r12)
	movq	%rcx, 24(%r12)
	movq	80(%rsp), %rcx
	movq	$0, 32(%r12)
	movq	%rcx, 32(%r12)
	movq	88(%rsp), %rcx
	movq	$0, 40(%r12)
	movq	%rcx, 40(%r12)
	movq	96(%rsp), %rcx
	movq	$0, 48(%r12)
	movq	%rcx, 48(%r12)
	movq	104(%rsp), %rcx
	movq	$0, 56(%r12)
	movq	%rcx, 56(%r12)
	movq	112(%rsp), %rcx
	movq	$0, 64(%r12)
	movq	%rcx, 64(%r12)
	movq	120(%rsp), %rcx
	movq	$0, 72(%r12)
	movq	%rcx, 72(%r12)
	movq	128(%rsp), %rcx
	movq	$0, 80(%r12)
	movq	%rcx, 80(%r12)
	movq	136(%rsp), %rcx
	movq	$0, 88(%r12)
	movq	%rcx, 88(%r12)
	movq	144(%rsp), %rcx
	movq	$0, 96(%r12)
	movq	%rcx, 96(%r12)
	movq	152(%rsp), %rcx
	movq	$0, 104(%r12)
	movq	%rcx, 104(%r12)
	movq	160(%rsp), %rcx
	movq	$0, 112(%r12)
	movq	%rcx, 112(%r12)
	movq	(%r14), %rcx
	movq	$0, (%rcx)
	movl	%r15d, %edx
	movq	%rdx, (%rcx)
	addq	$8, (%r14)
	xorl	%esi, %esi
	movq	%rax, %rdi
	movq	%r13, %rdx
	movl	%ebp, %ecx
	movq	%r14, %r8
	movq	24(%rsp), %r15          # 8-byte Reload
	movq	%r15, %r9
	callq	call_invoke_method
	cmpl	$1, %eax
	jne	.LBB20_40
# BB#41:                                # %entry_ifend807
                                        #   in Loop: Header=BB20_13 Depth=1
	movq	(%r13), %rax
	movq	$0, 48(%rsp)
	movq	%rax, 48(%rsp)
	movq	8(%r13), %rax
	movq	$0, 56(%rsp)
	movq	%rax, 56(%rsp)
	movq	16(%r13), %rax
	movq	$0, 64(%rsp)
	movq	%rax, 64(%rsp)
	movq	24(%r13), %rax
	movq	$0, 72(%rsp)
	movq	%rax, 72(%rsp)
	movq	32(%r13), %rax
	movq	$0, 80(%rsp)
	movq	%rax, 80(%rsp)
	movq	40(%r13), %rax
	movq	$0, 88(%rsp)
	movq	%rax, 88(%rsp)
	movq	48(%r13), %rax
	movq	$0, 96(%rsp)
	movq	%rax, 96(%rsp)
	movq	56(%r13), %rax
	movq	$0, 104(%rsp)
	movq	%rax, 104(%rsp)
	movq	64(%r13), %rax
	movq	$0, 112(%rsp)
	movq	%rax, 112(%rsp)
	movq	72(%r13), %rax
	movq	$0, 120(%rsp)
	movq	%rax, 120(%rsp)
	movq	80(%r13), %rax
	movq	$0, 128(%rsp)
	movq	%rax, 128(%rsp)
	movq	88(%r13), %rax
	movq	$0, 136(%rsp)
	movq	%rax, 136(%rsp)
	movq	96(%r13), %rax
	movq	$0, 144(%rsp)
	movq	%rax, 144(%rsp)
	movq	104(%r13), %rax
	movq	$0, 152(%rsp)
	movq	%rax, 152(%rsp)
	movq	112(%r13), %rax
	movq	$0, 160(%rsp)
	movq	%rax, 160(%rsp)
	movq	(%r14), %rax
	movq	-8(%rax), %rbx
	movl	%ebx, %edi
	callq	push_jit_object
	movq	(%r14), %rax
	leaq	-8(%rax), %rcx
	movq	%rcx, (%r14)
	movq	$0, -8(%rax)
	movl	(%rsp), %ecx            # 4-byte Reload
	movq	%rcx, -8(%rax)
	movq	(%r14), %rax
	leaq	8(%rax), %rcx
	movq	%rcx, (%r14)
	movq	$0, 8(%rax)
	movq	8(%rsp), %rcx           # 8-byte Reload
	movl	%ecx, %ecx
	movq	%rcx, 8(%rax)
	movq	(%r14), %rax
	leaq	8(%rax), %rcx
	movq	%rcx, (%r14)
	movq	$0, 8(%rax)
	movq	%rbx, 8(%rax)
	addq	$8, (%r14)
	movl	$2, %edi
	movq	%r13, %rsi
	movl	%ebp, %edx
	movq	%r14, %rcx
	movq	%r14, %rbx
	movq	%r15, %r8
	movq	%r15, %r14
	callq	invoke_block_in_jit
	testl	%eax, %eax
	movq	240(%rsp), %rbp
	je	.LBB20_1
# BB#42:                                # %entry_ifend855
                                        #   in Loop: Header=BB20_13 Depth=1
	movq	(%rbx), %rax
	movq	-8(%rax), %r15
	movl	%r15d, %edi
	callq	push_jit_object
	addq	$-8, (%rbx)
	movq	$0, 144(%rsp)
	movq	%r15, 144(%rsp)
	movl	$0, gSigInt(%rip)
	movl	80(%rsp), %r12d
	movl	$9908, %esi             # imm = 0x26B4
	movq	%rbp, %rdi
	callq	get_class_with_load_and_initialize_in_jit
	testq	%rax, %rax
	je	.LBB20_1
# BB#43:                                # %entry_ifend865
                                        #   in Loop: Header=BB20_13 Depth=1
	movq	48(%rsp), %rcx
	movq	32(%rsp), %rdx          # 8-byte Reload
	movq	$0, (%rdx)
	movq	%rcx, (%rdx)
	movq	56(%rsp), %rcx
	movq	$0, 8(%rdx)
	movq	%rcx, 8(%rdx)
	movq	64(%rsp), %rcx
	movq	$0, 16(%rdx)
	movq	%rcx, 16(%rdx)
	movq	72(%rsp), %rcx
	movq	$0, 24(%rdx)
	movq	%rcx, 24(%rdx)
	movq	80(%rsp), %rcx
	movq	$0, 32(%rdx)
	movq	%rcx, 32(%rdx)
	movq	88(%rsp), %rcx
	movq	$0, 40(%rdx)
	movq	%rcx, 40(%rdx)
	movq	96(%rsp), %rcx
	movq	$0, 48(%rdx)
	movq	%rcx, 48(%rdx)
	movq	104(%rsp), %rcx
	movq	$0, 56(%rdx)
	movq	%rcx, 56(%rdx)
	movq	112(%rsp), %rcx
	movq	$0, 64(%rdx)
	movq	%rcx, 64(%rdx)
	movq	120(%rsp), %rcx
	movq	$0, 72(%rdx)
	movq	%rcx, 72(%rdx)
	movq	128(%rsp), %rcx
	movq	$0, 80(%rdx)
	movq	%rcx, 80(%rdx)
	movq	136(%rsp), %rcx
	movq	$0, 88(%rdx)
	movq	%rcx, 88(%rdx)
	movq	144(%rsp), %rcx
	movq	$0, 96(%rdx)
	movq	%rcx, 96(%rdx)
	movq	152(%rsp), %rcx
	movq	$0, 104(%rdx)
	movq	%rcx, 104(%rdx)
	movq	160(%rsp), %rcx
	movq	$0, 112(%rdx)
	movq	%rcx, 112(%rdx)
	movq	(%rbx), %rcx
	movq	$0, (%rcx)
	movl	%r12d, %edx
	movq	%rdx, (%rcx)
	movq	(%rbx), %rcx
	leaq	8(%rcx), %rdx
	movq	%rdx, (%rbx)
	movq	$0, 8(%rcx)
	movl	%r15d, %edx
	movq	%rdx, 8(%rcx)
	addq	$8, (%rbx)
	movl	$8, %esi
	movq	%rax, %rdi
	movq	%r13, %rdx
	movl	44(%rsp), %r15d         # 4-byte Reload
	movl	%r15d, %ecx
	movq	%rbx, %r8
	movq	%r14, %r9
	callq	call_invoke_method
	cmpl	$1, %eax
	jne	.LBB20_5
# BB#44:                                # %entry_ifend905
                                        #   in Loop: Header=BB20_13 Depth=1
	movq	(%r13), %rax
	movq	$0, 48(%rsp)
	movq	%rax, 48(%rsp)
	movq	8(%r13), %rax
	movq	$0, 56(%rsp)
	movq	%rax, 56(%rsp)
	movq	16(%r13), %rax
	movq	$0, 64(%rsp)
	movq	%rax, 64(%rsp)
	movq	24(%r13), %rax
	movq	$0, 72(%rsp)
	movq	%rax, 72(%rsp)
	movq	32(%r13), %rax
	movq	$0, 80(%rsp)
	movq	%rax, 80(%rsp)
	movq	40(%r13), %rax
	movq	$0, 88(%rsp)
	movq	%rax, 88(%rsp)
	movq	48(%r13), %rax
	movq	$0, 96(%rsp)
	movq	%rax, 96(%rsp)
	movq	56(%r13), %rax
	movq	$0, 104(%rsp)
	movq	%rax, 104(%rsp)
	movq	64(%r13), %rax
	movq	$0, 112(%rsp)
	movq	%rax, 112(%rsp)
	movq	72(%r13), %rax
	movq	$0, 120(%rsp)
	movq	%rax, 120(%rsp)
	movq	80(%r13), %rax
	movq	$0, 128(%rsp)
	movq	%rax, 128(%rsp)
	movq	88(%r13), %rax
	movq	$0, 136(%rsp)
	movq	%rax, 136(%rsp)
	movq	96(%r13), %rax
	movq	$0, 144(%rsp)
	movq	%rax, 144(%rsp)
	movq	104(%r13), %rax
	movq	$0, 152(%rsp)
	movq	%rax, 152(%rsp)
	movq	112(%r13), %rax
	movq	$0, 160(%rsp)
	movq	%rax, 160(%rsp)
	movq	(%rbx), %rax
	movl	-8(%rax), %edi
	callq	push_jit_object
	addq	$-8, (%rbx)
	movl	$0, gSigInt(%rip)
	movl	88(%rsp), %ebp
	movl	112(%rsp), %r8d
	movl	$1, %r9d
	movq	%rbx, %rdi
	movq	%r13, %rsi
	movl	%r15d, %edx
	movq	%r14, %rcx
	callq	get_field_from_object
	cmpl	$0, 8(%rax)
	movq	240(%rsp), %r15
	je	.LBB20_1
# BB#45:                                # %entry_ifend946
                                        #   in Loop: Header=BB20_13 Depth=1
	movq	(%rax), %r8
	xorl	%r9d, %r9d
	movq	16(%rsp), %rdi          # 8-byte Reload
	movq	%r13, %rsi
	movl	44(%rsp), %edx          # 4-byte Reload
	movq	24(%rsp), %rcx          # 8-byte Reload
	callq	load_element
	cmpl	$0, 8(%rax)
	je	.LBB20_1
# BB#46:                                # %entry_ifend950
                                        #   in Loop: Header=BB20_13 Depth=1
	movq	%r13, %r12
	movq	%r15, %rbx
	movq	(%rax), %rax
	movl	$0, gSigInt(%rip)
	cmpl	%eax, %ebp
	jne	.LBB20_52
# BB#47:                                # %entry_condend954
                                        #   in Loop: Header=BB20_13 Depth=1
	movl	88(%rsp), %eax
	incl	%eax
	movq	$0, 88(%rsp)
	jmp	.LBB20_48
.LBB20_61:                              # %label_elifzzzzzzzzzzzzzzzzzy1a
                                        #   in Loop: Header=BB20_13 Depth=1
	cmpl	$1, %ebx
	movl	$0, gSigInt(%rip)
	movl	96(%rsp), %eax
	movl	%eax, (%rsp)            # 4-byte Spill
	movl	88(%rsp), %eax
	movl	%eax, 8(%rsp)           # 4-byte Spill
	jle	.LBB20_110
# BB#62:                                # %entry_condend1218
                                        #   in Loop: Header=BB20_13 Depth=1
	movl	112(%rsp), %r8d
	xorl	%r9d, %r9d
	movq	%r14, %rdi
	movq	%r12, %r13
	movq	%r13, %rsi
	movl	44(%rsp), %edx          # 4-byte Reload
	movq	24(%rsp), %rcx          # 8-byte Reload
	callq	get_field_from_object
	cmpl	$0, 8(%rax)
	movq	%r15, %rbp
	je	.LBB20_1
# BB#63:                                # %entry_ifend1224
                                        #   in Loop: Header=BB20_13 Depth=1
	movq	(%rax), %r8
	xorl	%r9d, %r9d
	movq	%r14, %rdi
	movq	%r13, %rsi
	movl	44(%rsp), %edx          # 4-byte Reload
	movq	24(%rsp), %rcx          # 8-byte Reload
	callq	load_element
	cmpl	$0, 8(%rax)
	je	.LBB20_1
# BB#64:                                # %entry_ifend1228
                                        #   in Loop: Header=BB20_13 Depth=1
	movq	(%rax), %rbx
	movl	$10328, %esi            # imm = 0x2858
	movq	%rbp, %rdi
	callq	get_class_with_load_and_initialize_in_jit
	testq	%rax, %rax
	je	.LBB20_1
# BB#65:                                # %entry_ifend1231
                                        #   in Loop: Header=BB20_13 Depth=1
	movq	48(%rsp), %rcx
	movq	32(%rsp), %r12          # 8-byte Reload
	movq	$0, (%r12)
	movq	%rcx, (%r12)
	movq	56(%rsp), %rcx
	movq	$0, 8(%r12)
	movq	%rcx, 8(%r12)
	movq	64(%rsp), %rcx
	movq	$0, 16(%r12)
	movq	%rcx, 16(%r12)
	movq	72(%rsp), %rcx
	movq	$0, 24(%r12)
	movq	%rcx, 24(%r12)
	movq	80(%rsp), %rcx
	movq	$0, 32(%r12)
	movq	%rcx, 32(%r12)
	movq	88(%rsp), %rcx
	movq	$0, 40(%r12)
	movq	%rcx, 40(%r12)
	movq	96(%rsp), %rcx
	movq	$0, 48(%r12)
	movq	%rcx, 48(%r12)
	movq	104(%rsp), %rcx
	movq	$0, 56(%r12)
	movq	%rcx, 56(%r12)
	movq	112(%rsp), %rcx
	movq	$0, 64(%r12)
	movq	%rcx, 64(%r12)
	movq	120(%rsp), %rcx
	movq	$0, 72(%r12)
	movq	%rcx, 72(%r12)
	movq	128(%rsp), %rcx
	movq	$0, 80(%r12)
	movq	%rcx, 80(%r12)
	movq	136(%rsp), %rcx
	movq	$0, 88(%r12)
	movq	%rcx, 88(%r12)
	movq	144(%rsp), %rcx
	movq	$0, 96(%r12)
	movq	%rcx, 96(%r12)
	movq	152(%rsp), %rcx
	movq	$0, 104(%r12)
	movq	%rcx, 104(%r12)
	movq	160(%rsp), %rcx
	movq	$0, 112(%r12)
	movq	%rcx, 112(%r12)
	movq	(%r14), %rcx
	movq	$0, (%rcx)
	movl	(%rsp), %edx            # 4-byte Reload
	movq	%rdx, (%rcx)
	movq	(%r14), %rcx
	leaq	8(%rcx), %rdx
	movq	%rdx, (%r14)
	movq	$0, 8(%rcx)
	movl	8(%rsp), %edx           # 4-byte Reload
	movq	%rdx, 8(%rcx)
	movq	(%r14), %rcx
	leaq	8(%rcx), %rdx
	movq	%rdx, (%r14)
	movq	$0, 8(%rcx)
	movl	%ebx, %edx
	movq	%rdx, 8(%rcx)
	addq	$8, (%r14)
	movl	$11, %esi
	movq	%rax, %rdi
	movq	%r13, %rdx
	movl	44(%rsp), %ebp          # 4-byte Reload
	movl	%ebp, %ecx
	movq	%r14, %r8
	movq	24(%rsp), %rbx          # 8-byte Reload
	movq	%rbx, %r9
	callq	call_invoke_method
	cmpl	$1, %eax
	jne	.LBB20_8
# BB#66:                                # %entry_ifend1274
                                        #   in Loop: Header=BB20_13 Depth=1
	movq	(%r13), %rax
	movq	$0, 48(%rsp)
	movq	%rax, 48(%rsp)
	movq	8(%r13), %rax
	movq	$0, 56(%rsp)
	movq	%rax, 56(%rsp)
	movq	16(%r13), %rax
	movq	$0, 64(%rsp)
	movq	%rax, 64(%rsp)
	movq	24(%r13), %rax
	movq	$0, 72(%rsp)
	movq	%rax, 72(%rsp)
	movq	32(%r13), %rax
	movq	$0, 80(%rsp)
	movq	%rax, 80(%rsp)
	movq	40(%r13), %rax
	movq	$0, 88(%rsp)
	movq	%rax, 88(%rsp)
	movq	48(%r13), %rax
	movq	$0, 96(%rsp)
	movq	%rax, 96(%rsp)
	movq	56(%r13), %rax
	movq	$0, 104(%rsp)
	movq	%rax, 104(%rsp)
	movq	64(%r13), %rax
	movq	$0, 112(%rsp)
	movq	%rax, 112(%rsp)
	movq	72(%r13), %rax
	movq	$0, 120(%rsp)
	movq	%rax, 120(%rsp)
	movq	80(%r13), %rax
	movq	$0, 128(%rsp)
	movq	%rax, 128(%rsp)
	movq	88(%r13), %rax
	movq	$0, 136(%rsp)
	movq	%rax, 136(%rsp)
	movq	96(%r13), %rax
	movq	$0, 144(%rsp)
	movq	%rax, 144(%rsp)
	movq	104(%r13), %rax
	movq	$0, 152(%rsp)
	movq	%rax, 152(%rsp)
	movq	112(%r13), %rax
	movq	$0, 160(%rsp)
	movq	%rax, 160(%rsp)
	movq	(%r14), %rax
	movq	-8(%rax), %r15
	movl	%r15d, %edi
	callq	push_jit_object
	addq	$-8, (%r14)
	movl	$10336, %esi            # imm = 0x2860
	movq	240(%rsp), %rdi
	callq	get_class_with_load_and_initialize_in_jit
	testq	%rax, %rax
	je	.LBB20_1
# BB#67:                                # %entry_ifend1313
                                        #   in Loop: Header=BB20_13 Depth=1
	movq	48(%rsp), %rcx
	movq	$0, (%r12)
	movq	%rcx, (%r12)
	movq	56(%rsp), %rcx
	movq	$0, 8(%r12)
	movq	%rcx, 8(%r12)
	movq	64(%rsp), %rcx
	movq	$0, 16(%r12)
	movq	%rcx, 16(%r12)
	movq	72(%rsp), %rcx
	movq	$0, 24(%r12)
	movq	%rcx, 24(%r12)
	movq	80(%rsp), %rcx
	movq	$0, 32(%r12)
	movq	%rcx, 32(%r12)
	movq	88(%rsp), %rcx
	movq	$0, 40(%r12)
	movq	%rcx, 40(%r12)
	movq	96(%rsp), %rcx
	movq	$0, 48(%r12)
	movq	%rcx, 48(%r12)
	movq	104(%rsp), %rcx
	movq	$0, 56(%r12)
	movq	%rcx, 56(%r12)
	movq	112(%rsp), %rcx
	movq	$0, 64(%r12)
	movq	%rcx, 64(%r12)
	movq	120(%rsp), %rcx
	movq	$0, 72(%r12)
	movq	%rcx, 72(%r12)
	movq	128(%rsp), %rcx
	movq	$0, 80(%r12)
	movq	%rcx, 80(%r12)
	movq	136(%rsp), %rcx
	movq	$0, 88(%r12)
	movq	%rcx, 88(%r12)
	movq	144(%rsp), %rcx
	movq	$0, 96(%r12)
	movq	%rcx, 96(%r12)
	movq	152(%rsp), %rcx
	movq	$0, 104(%r12)
	movq	%rcx, 104(%r12)
	movq	160(%rsp), %rcx
	movq	$0, 112(%r12)
	movq	%rcx, 112(%r12)
	movq	(%r14), %rcx
	movq	$0, (%rcx)
	movq	%r15, (%rcx)
	addq	$8, (%r14)
	movl	$10, %esi
	movq	%rax, %rdi
	movq	%r13, %rdx
	movl	%ebp, %ecx
	movq	%r14, %r8
	movq	%rbx, %r9
	callq	call_invoke_method
	cmpl	$1, %eax
	jne	.LBB20_8
# BB#68:                                # %entry_ifend1350
                                        #   in Loop: Header=BB20_13 Depth=1
	movq	(%r13), %rax
	movq	$0, 48(%rsp)
	movq	%rax, 48(%rsp)
	movq	8(%r13), %rax
	movq	$0, 56(%rsp)
	movq	%rax, 56(%rsp)
	movq	16(%r13), %rax
	movq	$0, 64(%rsp)
	movq	%rax, 64(%rsp)
	movq	24(%r13), %rax
	movq	$0, 72(%rsp)
	movq	%rax, 72(%rsp)
	movq	32(%r13), %rax
	movq	$0, 80(%rsp)
	movq	%rax, 80(%rsp)
	movq	40(%r13), %rax
	movq	$0, 88(%rsp)
	movq	%rax, 88(%rsp)
	movq	48(%r13), %rax
	movq	$0, 96(%rsp)
	movq	%rax, 96(%rsp)
	movq	56(%r13), %rax
	movq	$0, 104(%rsp)
	movq	%rax, 104(%rsp)
	movq	64(%r13), %rax
	movq	$0, 112(%rsp)
	movq	%rax, 112(%rsp)
	movq	72(%r13), %rax
	movq	$0, 120(%rsp)
	movq	%rax, 120(%rsp)
	movq	80(%r13), %rax
	movq	$0, 128(%rsp)
	movq	%rax, 128(%rsp)
	movq	88(%r13), %rax
	movq	$0, 136(%rsp)
	movq	%rax, 136(%rsp)
	movq	96(%r13), %rax
	movq	$0, 144(%rsp)
	movq	%rax, 144(%rsp)
	movq	104(%r13), %rax
	movq	$0, 152(%rsp)
	movq	%rax, 152(%rsp)
	movq	112(%r13), %rax
	movq	$0, 160(%rsp)
	movq	%rax, 160(%rsp)
	movq	(%r14), %rax
	movq	-8(%rax), %rbx
	movl	%ebx, %edi
	callq	push_jit_object
	addq	$-8, (%r14)
	movq	$0, 128(%rsp)
	movq	%rbx, 128(%rsp)
	movl	$0, gSigInt(%rip)
	movl	80(%rsp), %r12d
	movl	$10344, %esi            # imm = 0x2868
	movq	240(%rsp), %rdi
	callq	get_class_with_load_and_initialize_in_jit
	testq	%rax, %rax
	je	.LBB20_1
# BB#69:                                # %entry_ifend1391
                                        #   in Loop: Header=BB20_13 Depth=1
	movq	48(%rsp), %rcx
	movq	32(%rsp), %r15          # 8-byte Reload
	movq	$0, (%r15)
	movq	%rcx, (%r15)
	movq	56(%rsp), %rcx
	movq	$0, 8(%r15)
	movq	%rcx, 8(%r15)
	movq	64(%rsp), %rcx
	movq	$0, 16(%r15)
	movq	%rcx, 16(%r15)
	movq	72(%rsp), %rcx
	movq	$0, 24(%r15)
	movq	%rcx, 24(%r15)
	movq	80(%rsp), %rcx
	movq	$0, 32(%r15)
	movq	%rcx, 32(%r15)
	movq	88(%rsp), %rcx
	movq	$0, 40(%r15)
	movq	%rcx, 40(%r15)
	movq	96(%rsp), %rcx
	movq	$0, 48(%r15)
	movq	%rcx, 48(%r15)
	movq	104(%rsp), %rcx
	movq	$0, 56(%r15)
	movq	%rcx, 56(%r15)
	movq	112(%rsp), %rcx
	movq	$0, 64(%r15)
	movq	%rcx, 64(%r15)
	movq	120(%rsp), %rcx
	movq	$0, 72(%r15)
	movq	%rcx, 72(%r15)
	movq	128(%rsp), %rcx
	movq	$0, 80(%r15)
	movq	%rcx, 80(%r15)
	movq	136(%rsp), %rcx
	movq	$0, 88(%r15)
	movq	%rcx, 88(%r15)
	movq	144(%rsp), %rcx
	movq	$0, 96(%r15)
	movq	%rcx, 96(%r15)
	movq	152(%rsp), %rcx
	movq	$0, 104(%r15)
	movq	%rcx, 104(%r15)
	movq	160(%rsp), %rcx
	movq	$0, 112(%r15)
	movq	%rcx, 112(%r15)
	movq	(%r14), %rcx
	movq	$0, (%rcx)
	movl	%r12d, %edx
	movq	%rdx, (%rcx)
	movq	(%r14), %rcx
	leaq	8(%rcx), %rdx
	movq	%rdx, (%r14)
	movq	$0, 8(%rcx)
	movl	%ebx, %edx
	movq	%r14, %rbx
	movq	%rdx, 8(%rcx)
	addq	$8, (%rbx)
	movl	$8, %esi
	movq	%rax, %rdi
	movq	%r13, %rdx
	movl	%ebp, %ecx
	movq	%rbx, %r8
	movq	24(%rsp), %r12          # 8-byte Reload
	movq	%r12, %r9
	callq	call_invoke_method
	cmpl	$1, %eax
	jne	.LBB20_70
# BB#71:                                # %entry_ifend1431
                                        #   in Loop: Header=BB20_13 Depth=1
	movq	(%r13), %rax
	movq	$0, 48(%rsp)
	movq	%rax, 48(%rsp)
	movq	8(%r13), %rax
	movq	$0, 56(%rsp)
	movq	%rax, 56(%rsp)
	movq	16(%r13), %rax
	movq	$0, 64(%rsp)
	movq	%rax, 64(%rsp)
	movq	24(%r13), %rax
	movq	$0, 72(%rsp)
	movq	%rax, 72(%rsp)
	movq	32(%r13), %rax
	movq	$0, 80(%rsp)
	movq	%rax, 80(%rsp)
	movq	40(%r13), %rax
	movq	$0, 88(%rsp)
	movq	%rax, 88(%rsp)
	movq	48(%r13), %rax
	movq	$0, 96(%rsp)
	movq	%rax, 96(%rsp)
	movq	56(%r13), %rax
	movq	$0, 104(%rsp)
	movq	%rax, 104(%rsp)
	movq	64(%r13), %rax
	movq	$0, 112(%rsp)
	movq	%rax, 112(%rsp)
	movq	72(%r13), %rax
	movq	$0, 120(%rsp)
	movq	%rax, 120(%rsp)
	movq	80(%r13), %rax
	movq	$0, 128(%rsp)
	movq	%rax, 128(%rsp)
	movq	88(%r13), %rax
	movq	$0, 136(%rsp)
	movq	%rax, 136(%rsp)
	movq	96(%r13), %rax
	movq	$0, 144(%rsp)
	movq	%rax, 144(%rsp)
	movq	104(%r13), %rax
	movq	$0, 152(%rsp)
	movq	%rax, 152(%rsp)
	movq	112(%r13), %rax
	movq	$0, 160(%rsp)
	movq	%rax, 160(%rsp)
	movq	(%rbx), %rax
	movl	-8(%rax), %edi
	callq	push_jit_object
	addq	$-8, (%rbx)
	movl	$0, gSigInt(%rip)
	movl	96(%rsp), %eax
	movl	%eax, 8(%rsp)           # 4-byte Spill
	movl	112(%rsp), %r8d
	xorl	%r9d, %r9d
	movq	%rbx, %rdi
	movq	%r13, %r15
	movq	%rbx, %r14
	movq	%r15, %rsi
	movl	%ebp, %edx
	movq	%r12, %rcx
	movq	%r12, %r13
	callq	get_field_from_object
	cmpl	$0, 8(%rax)
	movq	240(%rsp), %rbp
	je	.LBB20_1
# BB#72:                                # %entry_ifend1472
                                        #   in Loop: Header=BB20_13 Depth=1
	movq	(%rax), %r8
	xorl	%r9d, %r9d
	movq	%r14, %rdi
	movq	%r15, %rsi
	movl	44(%rsp), %edx          # 4-byte Reload
	movq	%r13, %rcx
	callq	load_element
	cmpl	$0, 8(%rax)
	je	.LBB20_1
# BB#73:                                # %entry_ifend1476
                                        #   in Loop: Header=BB20_13 Depth=1
	movq	(%rax), %rax
	movq	%rax, (%rsp)            # 8-byte Spill
	movl	112(%rsp), %r8d
	movl	$1, %r9d
	movq	%r14, %rdi
	movq	%r15, %rsi
	movl	44(%rsp), %edx          # 4-byte Reload
	movq	%r13, %rcx
	callq	get_field_from_object
	cmpl	$0, 8(%rax)
	je	.LBB20_1
# BB#74:                                # %entry_ifend1480
                                        #   in Loop: Header=BB20_13 Depth=1
	movq	(%rax), %r8
	xorl	%r9d, %r9d
	movq	%r14, %rdi
	movq	%r15, %rsi
	movl	44(%rsp), %edx          # 4-byte Reload
	movq	%r13, %rcx
	callq	load_element
	cmpl	$0, 8(%rax)
	je	.LBB20_1
# BB#75:                                # %entry_ifend1484
                                        #   in Loop: Header=BB20_13 Depth=1
	movq	(%rax), %rbx
	movl	$10352, %esi            # imm = 0x2870
	movq	%rbp, %rdi
	callq	get_class_with_load_and_initialize_in_jit
	testq	%rax, %rax
	je	.LBB20_1
# BB#76:                                # %entry_ifend1487
                                        #   in Loop: Header=BB20_13 Depth=1
	movq	48(%rsp), %rcx
	movq	32(%rsp), %rdx          # 8-byte Reload
	movq	$0, (%rdx)
	movq	%rcx, (%rdx)
	movq	56(%rsp), %rcx
	movq	$0, 8(%rdx)
	movq	%rcx, 8(%rdx)
	movq	64(%rsp), %rcx
	movq	$0, 16(%rdx)
	movq	%rcx, 16(%rdx)
	movq	72(%rsp), %rcx
	movq	$0, 24(%rdx)
	movq	%rcx, 24(%rdx)
	movq	80(%rsp), %rcx
	movq	$0, 32(%rdx)
	movq	%rcx, 32(%rdx)
	movq	88(%rsp), %rcx
	movq	$0, 40(%rdx)
	movq	%rcx, 40(%rdx)
	movq	96(%rsp), %rcx
	movq	$0, 48(%rdx)
	movq	%rcx, 48(%rdx)
	movq	104(%rsp), %rcx
	movq	$0, 56(%rdx)
	movq	%rcx, 56(%rdx)
	movq	112(%rsp), %rcx
	movq	$0, 64(%rdx)
	movq	%rcx, 64(%rdx)
	movq	120(%rsp), %rcx
	movq	$0, 72(%rdx)
	movq	%rcx, 72(%rdx)
	movq	128(%rsp), %rcx
	movq	$0, 80(%rdx)
	movq	%rcx, 80(%rdx)
	movq	136(%rsp), %rcx
	movq	$0, 88(%rdx)
	movq	%rcx, 88(%rdx)
	movq	144(%rsp), %rcx
	movq	$0, 96(%rdx)
	movq	%rcx, 96(%rdx)
	movq	152(%rsp), %rcx
	movq	$0, 104(%rdx)
	movq	%rcx, 104(%rdx)
	movq	160(%rsp), %rcx
	movq	$0, 112(%rdx)
	movq	%rcx, 112(%rdx)
	movq	%rdx, %r12
	movq	%r14, %rbp
	movq	(%rbp), %rcx
	movq	$0, (%rcx)
	movl	8(%rsp), %edx           # 4-byte Reload
	movq	%rdx, (%rcx)
	movq	(%rbp), %rcx
	leaq	8(%rcx), %rdx
	movq	%rdx, (%rbp)
	movq	$0, 8(%rcx)
	movq	(%rsp), %rdx            # 8-byte Reload
	movl	%edx, %edx
	movq	%rdx, 8(%rcx)
	movq	(%rbp), %rcx
	leaq	8(%rcx), %rdx
	movq	%rdx, (%rbp)
	movq	$0, 8(%rcx)
	movl	%ebx, %edx
	movq	%rdx, 8(%rcx)
	addq	$8, (%rbp)
	movl	$11, %esi
	movq	%rax, %rdi
	movq	%r15, %rdx
	movl	44(%rsp), %ecx          # 4-byte Reload
	movq	%rbp, %r8
	movq	%r13, %r9
	callq	call_invoke_method
	cmpl	$1, %eax
	jne	.LBB20_28
# BB#77:                                # %entry_ifend1530
                                        #   in Loop: Header=BB20_13 Depth=1
	movq	%r13, %rbx
	movq	(%r15), %rax
	movq	$0, 48(%rsp)
	movq	%rax, 48(%rsp)
	movq	8(%r15), %rax
	movq	$0, 56(%rsp)
	movq	%rax, 56(%rsp)
	movq	16(%r15), %rax
	movq	$0, 64(%rsp)
	movq	%rax, 64(%rsp)
	movq	24(%r15), %rax
	movq	$0, 72(%rsp)
	movq	%rax, 72(%rsp)
	movq	32(%r15), %rax
	movq	$0, 80(%rsp)
	movq	%rax, 80(%rsp)
	movq	40(%r15), %rax
	movq	$0, 88(%rsp)
	movq	%rax, 88(%rsp)
	movq	48(%r15), %rax
	movq	$0, 96(%rsp)
	movq	%rax, 96(%rsp)
	movq	56(%r15), %rax
	movq	$0, 104(%rsp)
	movq	%rax, 104(%rsp)
	movq	64(%r15), %rax
	movq	$0, 112(%rsp)
	movq	%rax, 112(%rsp)
	movq	72(%r15), %rax
	movq	$0, 120(%rsp)
	movq	%rax, 120(%rsp)
	movq	80(%r15), %rax
	movq	$0, 128(%rsp)
	movq	%rax, 128(%rsp)
	movq	88(%r15), %rax
	movq	$0, 136(%rsp)
	movq	%rax, 136(%rsp)
	movq	96(%r15), %rax
	movq	$0, 144(%rsp)
	movq	%rax, 144(%rsp)
	movq	104(%r15), %rax
	movq	$0, 152(%rsp)
	movq	%rax, 152(%rsp)
	movq	112(%r15), %rax
	movq	$0, 160(%rsp)
	movq	%rax, 160(%rsp)
	movq	(%rbp), %rax
	movq	-8(%rax), %r13
	movl	%r13d, %edi
	callq	push_jit_object
	addq	$-8, (%rbp)
	movl	$10360, %esi            # imm = 0x2878
	movq	240(%rsp), %rdi
	callq	get_class_with_load_and_initialize_in_jit
	testq	%rax, %rax
	je	.LBB20_1
# BB#78:                                # %entry_ifend1569
                                        #   in Loop: Header=BB20_13 Depth=1
	movq	48(%rsp), %rcx
	movq	$0, (%r12)
	movq	%rcx, (%r12)
	movq	56(%rsp), %rcx
	movq	$0, 8(%r12)
	movq	%rcx, 8(%r12)
	movq	64(%rsp), %rcx
	movq	$0, 16(%r12)
	movq	%rcx, 16(%r12)
	movq	72(%rsp), %rcx
	movq	$0, 24(%r12)
	movq	%rcx, 24(%r12)
	movq	80(%rsp), %rcx
	movq	$0, 32(%r12)
	movq	%rcx, 32(%r12)
	movq	88(%rsp), %rcx
	movq	$0, 40(%r12)
	movq	%rcx, 40(%r12)
	movq	96(%rsp), %rcx
	movq	$0, 48(%r12)
	movq	%rcx, 48(%r12)
	movq	104(%rsp), %rcx
	movq	$0, 56(%r12)
	movq	%rcx, 56(%r12)
	movq	112(%rsp), %rcx
	movq	$0, 64(%r12)
	movq	%rcx, 64(%r12)
	movq	120(%rsp), %rcx
	movq	$0, 72(%r12)
	movq	%rcx, 72(%r12)
	movq	128(%rsp), %rcx
	movq	$0, 80(%r12)
	movq	%rcx, 80(%r12)
	movq	136(%rsp), %rcx
	movq	$0, 88(%r12)
	movq	%rcx, 88(%r12)
	movq	144(%rsp), %rcx
	movq	$0, 96(%r12)
	movq	%rcx, 96(%r12)
	movq	152(%rsp), %rcx
	movq	$0, 104(%r12)
	movq	%rcx, 104(%r12)
	movq	160(%rsp), %rcx
	movq	$0, 112(%r12)
	movq	%rcx, 112(%r12)
	movq	(%rbp), %rcx
	movq	$0, (%rcx)
	movq	%r13, (%rcx)
	movq	%rbp, %r14
	addq	$8, (%r14)
	movl	$10, %esi
	movq	%rax, %rdi
	movq	%r15, %rdx
	movl	44(%rsp), %ebp          # 4-byte Reload
	movl	%ebp, %ecx
	movq	%r14, %r8
	movq	%rbx, %r9
	callq	call_invoke_method
	cmpl	$1, %eax
	jne	.LBB20_8
# BB#79:                                # %entry_ifend1606
                                        #   in Loop: Header=BB20_13 Depth=1
	movq	(%r15), %rax
	movq	$0, 48(%rsp)
	movq	%rax, 48(%rsp)
	movq	8(%r15), %rax
	movq	$0, 56(%rsp)
	movq	%rax, 56(%rsp)
	movq	16(%r15), %rax
	movq	$0, 64(%rsp)
	movq	%rax, 64(%rsp)
	movq	24(%r15), %rax
	movq	$0, 72(%rsp)
	movq	%rax, 72(%rsp)
	movq	32(%r15), %rax
	movq	$0, 80(%rsp)
	movq	%rax, 80(%rsp)
	movq	40(%r15), %rax
	movq	$0, 88(%rsp)
	movq	%rax, 88(%rsp)
	movq	48(%r15), %rax
	movq	$0, 96(%rsp)
	movq	%rax, 96(%rsp)
	movq	56(%r15), %rax
	movq	$0, 104(%rsp)
	movq	%rax, 104(%rsp)
	movq	64(%r15), %rax
	movq	$0, 112(%rsp)
	movq	%rax, 112(%rsp)
	movq	72(%r15), %rax
	movq	$0, 120(%rsp)
	movq	%rax, 120(%rsp)
	movq	80(%r15), %rax
	movq	$0, 128(%rsp)
	movq	%rax, 128(%rsp)
	movq	88(%r15), %rax
	movq	$0, 136(%rsp)
	movq	%rax, 136(%rsp)
	movq	96(%r15), %rax
	movq	$0, 144(%rsp)
	movq	%rax, 144(%rsp)
	movq	104(%r15), %rax
	movq	$0, 152(%rsp)
	movq	%rax, 152(%rsp)
	movq	112(%r15), %rax
	movq	$0, 160(%rsp)
	movq	%rax, 160(%rsp)
	movq	(%r14), %rax
